---
triple:          'arm64-apple-darwin'
binary-path:     market_valgrind
relocations:
  - { offsetInCU: 0xAD10, offset: 0xAD10, size: 0x8, addend: 0x0, symName: __ZNSt3__124__put_character_sequenceB8ue170006IcNS_11char_traitsIcEEEERNS_13basic_ostreamIT_T0_EES7_PKS4_m, symObjAddr: 0x404C, symBinAddr: 0x100005798, symSize: 0x1EC }
  - { offsetInCU: 0xB88E, offset: 0xB88E, size: 0x8, addend: 0x0, symName: __ZNSt3__117__floyd_sift_downB8ue170006INS_17_ClassicAlgPolicyER13buyer_functorNS_11__wrap_iterIP5OrderEEEET1_S8_OT0_NS_15iterator_traitsIS8_E15difference_typeE, symObjAddr: 0xAFAC, symBinAddr: 0x10000C6F8, symSize: 0x14C }
  - { offsetInCU: 0xB958, offset: 0xB958, size: 0x8, addend: 0x0, symName: __ZNSt3__117__floyd_sift_downB8ue170006INS_17_ClassicAlgPolicyER14seller_functorNS_11__wrap_iterIP5OrderEEEET1_S8_OT0_NS_15iterator_traitsIS8_E15difference_typeE, symObjAddr: 0xB414, symBinAddr: 0x10000CB60, symSize: 0x14C }
  - { offsetInCU: 0xBBCA, offset: 0xBBCA, size: 0x8, addend: 0x0, symName: __ZNSt3__117__floyd_sift_downB8ue170006INS_17_ClassicAlgPolicyERNS_4lessIxEENS_11__wrap_iterIPxEEEET1_S8_OT0_NS_15iterator_traitsIS8_E15difference_typeE, symObjAddr: 0xD070, symBinAddr: 0x10000E7BC, symSize: 0x14C }
  - { offsetInCU: 0xBC94, offset: 0xBC94, size: 0x8, addend: 0x0, symName: __ZNSt3__117__floyd_sift_downB8ue170006INS_17_ClassicAlgPolicyERNS_7greaterIxEENS_11__wrap_iterIPxEEEET1_S8_OT0_NS_15iterator_traitsIS8_E15difference_typeE, symObjAddr: 0xD4C0, symBinAddr: 0x10000EC0C, symSize: 0x14C }
  - { offsetInCU: 0xCD56, offset: 0xCD56, size: 0x8, addend: 0x0, symName: __ZNSt3__1lsB8ue170006INS_11char_traitsIcEEEERNS_13basic_ostreamIcT_EES6_c, symObjAddr: 0x77C, symBinAddr: 0x100001EC8, symSize: 0x34 }
  - { offsetInCU: 0xCD9C, offset: 0xCD9C, size: 0x8, addend: 0x0, symName: __ZNSt3__1lsB8ue170006INS_11char_traitsIcEEEERNS_13basic_ostreamIcT_EES6_PKc, symObjAddr: 0x7B0, symBinAddr: 0x100001EFC, symSize: 0x48 }
  - { offsetInCU: 0xCDE2, offset: 0xCDE2, size: 0x8, addend: 0x0, symName: __ZNSt3__17getlineB8ue170006IcNS_11char_traitsIcEENS_9allocatorIcEEEERNS_13basic_istreamIT_T0_EES9_RNS_12basic_stringIS6_S7_T1_EE, symObjAddr: 0x824, symBinAddr: 0x100001F70, symSize: 0x5C }
  - { offsetInCU: 0xCE3A, offset: 0xCE3A, size: 0x8, addend: 0x0, symName: __ZNSt3__1rsB8ue170006IcNS_11char_traitsIcEENS_9allocatorIcEEEERNS_13basic_istreamIT_T0_EES9_RNS_12basic_stringIS6_S7_T1_EE, symObjAddr: 0x880, symBinAddr: 0x100001FCC, symSize: 0x308 }
  - { offsetInCU: 0xCF07, offset: 0xCF07, size: 0x8, addend: 0x0, symName: __ZNSt3__1eqB8ue170006IcNS_11char_traitsIcEENS_9allocatorIcEEEEbRKNS_12basic_stringIT_T0_T1_EEPKS6_, symObjAddr: 0xDC4, symBinAddr: 0x100002510, symSize: 0xAC }
  - { offsetInCU: 0xCF6E, offset: 0xCF6E, size: 0x8, addend: 0x0, symName: __ZNSt3__1rsB8ue170006IcNS_11char_traitsIcEEEERNS_13basic_istreamIT_T0_EES7_RS4_, symObjAddr: 0x1518, symBinAddr: 0x100002C64, symSize: 0x18C }
  - { offsetInCU: 0xCFF0, offset: 0xCFF0, size: 0x8, addend: 0x0, symName: __ZNSt3__112__to_addressB8ue170006I6TraderEEPT_S3_, symObjAddr: 0x296C, symBinAddr: 0x1000040B8, symSize: 0x14 }
  - { offsetInCU: 0xD025, offset: 0xD025, size: 0x8, addend: 0x0, symName: __ZNSt3__119__libcpp_deallocateB8ue170006EPvmm, symObjAddr: 0x2A48, symBinAddr: 0x100004194, symSize: 0x60 }
  - { offsetInCU: 0xD08A, offset: 0xD08A, size: 0x8, addend: 0x0, symName: __ZNSt3__124__is_overaligned_for_newB8ue170006Em, symObjAddr: 0x2AA8, symBinAddr: 0x1000041F4, symSize: 0x20 }
  - { offsetInCU: 0xD0B8, offset: 0xD0B8, size: 0x8, addend: 0x0, symName: __ZNSt3__127__do_deallocate_handle_sizeB8ue170006IJSt11align_val_tEEEvPvmDpT_, symObjAddr: 0x2AC8, symBinAddr: 0x100004214, symSize: 0x30 }
  - { offsetInCU: 0xD10B, offset: 0xD10B, size: 0x8, addend: 0x0, symName: __ZNSt3__127__do_deallocate_handle_sizeB8ue170006IJEEEvPvmDpT_, symObjAddr: 0x2AF8, symBinAddr: 0x100004244, symSize: 0x28 }
  - { offsetInCU: 0xD149, offset: 0xD149, size: 0x8, addend: 0x0, symName: __ZNSt3__124__libcpp_operator_deleteB8ue170006IJPvSt11align_val_tEEEvDpT_, symObjAddr: 0x2B20, symBinAddr: 0x10000426C, symSize: 0x2C }
  - { offsetInCU: 0xD192, offset: 0xD192, size: 0x8, addend: 0x0, symName: __ZNSt3__124__libcpp_operator_deleteB8ue170006IJPvEEEvDpT_, symObjAddr: 0x2B4C, symBinAddr: 0x100004298, symSize: 0x24 }
  - { offsetInCU: 0xD1C7, offset: 0xD1C7, size: 0x8, addend: 0x0, symName: __ZNSt3__112__to_addressB8ue170006I5StockEEPT_S3_, symObjAddr: 0x2F80, symBinAddr: 0x1000046CC, symSize: 0x14 }
  - { offsetInCU: 0xD1FC, offset: 0xD1FC, size: 0x8, addend: 0x0, symName: __ZNSt3__112__to_addressB8ue170006IxEEPT_S2_, symObjAddr: 0x3488, symBinAddr: 0x100004BD4, symSize: 0x14 }
  - { offsetInCU: 0xD231, offset: 0xD231, size: 0x8, addend: 0x0, symName: __ZNSt3__112__to_addressB8ue170006I5OrderEEPT_S3_, symObjAddr: 0x3A20, symBinAddr: 0x10000516C, symSize: 0x14 }
  - { offsetInCU: 0xD266, offset: 0xD266, size: 0x8, addend: 0x0, symName: __ZNSt3__116__pad_and_outputB8ue170006IcNS_11char_traitsIcEEEENS_19ostreambuf_iteratorIT_T0_EES6_PKS4_S8_S8_RNS_8ios_baseES4_, symObjAddr: 0x4288, symBinAddr: 0x1000059D4, symSize: 0x240 }
  - { offsetInCU: 0xD335, offset: 0xD335, size: 0x8, addend: 0x0, symName: __ZNSt3__112__to_addressB8ue170006IcEEPT_S2_, symObjAddr: 0x47F0, symBinAddr: 0x100005F3C, symSize: 0x14 }
  - { offsetInCU: 0xD39D, offset: 0xD39D, size: 0x8, addend: 0x0, symName: __ZNSt3__19use_facetB8ue170006INS_5ctypeIcEEEERKT_RKNS_6localeE, symObjAddr: 0x4AA8, symBinAddr: 0x1000061F4, symSize: 0x2C }
  - { offsetInCU: 0xD77B, offset: 0xD77B, size: 0x8, addend: 0x0, symName: __ZNSt3__118__constexpr_strlenB8ue170006EPKc, symObjAddr: 0x4B40, symBinAddr: 0x10000628C, symSize: 0x24 }
  - { offsetInCU: 0xD7A7, offset: 0xD7A7, size: 0x8, addend: 0x0, symName: __ZNSt3__17getlineB8ue170006IcNS_11char_traitsIcEENS_9allocatorIcEEEERNS_13basic_istreamIT_T0_EES9_RNS_12basic_stringIS6_S7_T1_EES6_, symObjAddr: 0x4BEC, symBinAddr: 0x100006338, symSize: 0x238 }
  - { offsetInCU: 0xDC3B, offset: 0xDC3B, size: 0x8, addend: 0x0, symName: __ZNSt3__13maxB8ue170006ImEERKT_S3_S3_, symObjAddr: 0x5B90, symBinAddr: 0x1000072DC, symSize: 0x2C }
  - { offsetInCU: 0xDC7E, offset: 0xDC7E, size: 0x8, addend: 0x0, symName: __ZNSt3__13minB8ue170006ImEERKT_S3_S3_, symObjAddr: 0x5BBC, symBinAddr: 0x100007308, symSize: 0x2C }
  - { offsetInCU: 0xDCC1, offset: 0xDCC1, size: 0x8, addend: 0x0, symName: __ZNSt3__13minB8ue170006ImNS_6__lessIvvEEEERKT_S5_S5_T0_, symObjAddr: 0x5C34, symBinAddr: 0x100007380, symSize: 0x54 }
  - { offsetInCU: 0xDD60, offset: 0xDD60, size: 0x8, addend: 0x0, symName: __ZNSt3__120__throw_length_errorB8ue170006EPKc, symObjAddr: 0x5D0C, symBinAddr: 0x100007458, symSize: 0x64 }
  - { offsetInCU: 0xDD8A, offset: 0xDD8A, size: 0x8, addend: 0x0, symName: __ZNSt3__13maxB8ue170006ImNS_6__lessIvvEEEERKT_S5_S5_T0_, symObjAddr: 0x5DF0, symBinAddr: 0x10000753C, symSize: 0x54 }
  - { offsetInCU: 0xDDE4, offset: 0xDDE4, size: 0x8, addend: 0x0, symName: __ZNSt3__119__allocate_at_leastB8ue170006INS_9allocatorI6TraderEEEENS_19__allocation_resultINS_16allocator_traitsIT_E7pointerEEERS6_m, symObjAddr: 0x5F60, symBinAddr: 0x1000076AC, symSize: 0x40 }
  - { offsetInCU: 0xDE27, offset: 0xDE27, size: 0x8, addend: 0x0, symName: __ZNSt3__117__libcpp_allocateB8ue170006Emm, symObjAddr: 0x60E8, symBinAddr: 0x100007834, symSize: 0x60 }
  - { offsetInCU: 0xDE81, offset: 0xDE81, size: 0x8, addend: 0x0, symName: __ZNSt3__121__libcpp_operator_newB8ue170006IJmSt11align_val_tEEEPvDpT_, symObjAddr: 0x6148, symBinAddr: 0x100007894, symSize: 0x2C }
  - { offsetInCU: 0xDECE, offset: 0xDECE, size: 0x8, addend: 0x0, symName: __ZNSt3__121__libcpp_operator_newB8ue170006IJmEEEPvDpT_, symObjAddr: 0x6174, symBinAddr: 0x1000078C0, symSize: 0x24 }
  - { offsetInCU: 0xDF07, offset: 0xDF07, size: 0x8, addend: 0x0, symName: __ZNSt3__142__uninitialized_allocator_move_if_noexceptB8ue170006INS_9allocatorI6TraderEENS_16reverse_iteratorIPS2_EES6_S2_vEET1_RT_T0_SA_S7_, symObjAddr: 0x62D0, symBinAddr: 0x100007A1C, symSize: 0x78 }
  - { offsetInCU: 0xDF84, offset: 0xDF84, size: 0x8, addend: 0x0, symName: __ZNSt3__14swapB8ue170006IP6TraderEENS_9enable_ifIXaasr21is_move_constructibleIT_EE5valuesr18is_move_assignableIS4_EE5valueEvE4typeERS4_S7_, symObjAddr: 0x6394, symBinAddr: 0x100007AE0, symSize: 0x3C }
  - { offsetInCU: 0xDFD5, offset: 0xDFD5, size: 0x8, addend: 0x0, symName: __ZNSt3__14moveB8ue170006INS_16reverse_iteratorIP6TraderEES4_EET0_T_S6_S5_, symObjAddr: 0x6498, symBinAddr: 0x100007BE4, symSize: 0x78 }
  - { offsetInCU: 0xE02F, offset: 0xE02F, size: 0x8, addend: 0x0, symName: __ZNSt3__16__moveB8ue170006INS_17_ClassicAlgPolicyENS_16reverse_iteratorIP6TraderEES5_S5_EENS_4pairIT0_T2_EES7_T1_S8_, symObjAddr: 0x6510, symBinAddr: 0x100007C5C, symSize: 0x64 }
  - { offsetInCU: 0xE09B, offset: 0xE09B, size: 0x8, addend: 0x0, symName: __ZNSt3__123__dispatch_copy_or_moveB8ue170006INS_17_ClassicAlgPolicyENS_11__move_loopIS1_EENS_14__move_trivialENS_16reverse_iteratorIP6TraderEES8_S8_EENS_4pairIT2_T4_EESA_T3_SB_, symObjAddr: 0x6574, symBinAddr: 0x100007CC0, symSize: 0x64 }
  - { offsetInCU: 0xE119, offset: 0xE119, size: 0x8, addend: 0x0, symName: __ZNSt3__121__unwrap_and_dispatchB8ue170006INS_10__overloadINS_11__move_loopINS_17_ClassicAlgPolicyEEENS_14__move_trivialEEENS_16reverse_iteratorIP6TraderEESA_SA_Li0EEENS_4pairIT0_T2_EESC_T1_SD_, symObjAddr: 0x65D8, symBinAddr: 0x100007D24, symSize: 0x12C }
  - { offsetInCU: 0xE1A9, offset: 0xE1A9, size: 0x8, addend: 0x0, symName: __ZNSt3__114__unwrap_rangeB8ue170006INS_16reverse_iteratorIP6TraderEES4_EENS_4pairIT0_S6_EET_S8_, symObjAddr: 0x6704, symBinAddr: 0x100007E50, symSize: 0x84 }
  - { offsetInCU: 0xE3A2, offset: 0xE3A2, size: 0x8, addend: 0x0, symName: __ZNSt3__113__unwrap_iterB8ue170006INS_16reverse_iteratorIP6TraderEENS_18__unwrap_iter_implIS4_Lb0EEELi0EEEDTclsrT0_8__unwrapclsr3stdE7declvalIT_EEEES8_, symObjAddr: 0x6830, symBinAddr: 0x100007F7C, symSize: 0x44 }
  - { offsetInCU: 0xE3E6, offset: 0xE3E6, size: 0x8, addend: 0x0, symName: __ZNSt3__19make_pairB8ue170006INS_16reverse_iteratorIP6TraderEES4_EENS_4pairINS_18__unwrap_ref_decayIT_E4typeENS6_IT0_E4typeEEEOS7_OSA_, symObjAddr: 0x6874, symBinAddr: 0x100007FC0, symSize: 0x38 }
  - { offsetInCU: 0xE435, offset: 0xE435, size: 0x8, addend: 0x0, symName: __ZNSt3__114__rewrap_rangeB8ue170006INS_16reverse_iteratorIP6TraderEES4_EET_S5_T0_, symObjAddr: 0x68AC, symBinAddr: 0x100007FF8, symSize: 0x5C }
  - { offsetInCU: 0xE481, offset: 0xE481, size: 0x8, addend: 0x0, symName: __ZNSt3__113__rewrap_iterB8ue170006INS_16reverse_iteratorIP6TraderEES4_NS_18__unwrap_iter_implIS4_Lb0EEEEET_S7_T0_, symObjAddr: 0x6908, symBinAddr: 0x100008054, symSize: 0x74 }
  - { offsetInCU: 0xE4D6, offset: 0xE4D6, size: 0x8, addend: 0x0, symName: __ZNSt3__1neB8ue170006IP6TraderS2_EEbRKNS_16reverse_iteratorIT_EERKNS3_IT0_EE, symObjAddr: 0x697C, symBinAddr: 0x1000080C8, symSize: 0x48 }
  - { offsetInCU: 0xE6A0, offset: 0xE6A0, size: 0x8, addend: 0x0, symName: __ZNSt3__119__allocate_at_leastB8ue170006INS_9allocatorI5StockEEEENS_19__allocation_resultINS_16allocator_traitsIT_E7pointerEEERS6_m, symObjAddr: 0x7BA4, symBinAddr: 0x1000092F0, symSize: 0x40 }
  - { offsetInCU: 0xE6E3, offset: 0xE6E3, size: 0x8, addend: 0x0, symName: __ZNSt3__142__uninitialized_allocator_move_if_noexceptB8ue170006INS_9allocatorI5StockEENS_16reverse_iteratorIPS2_EES6_S6_EET2_RT_T0_T1_S7_, symObjAddr: 0x7E30, symBinAddr: 0x10000957C, symSize: 0x12C }
  - { offsetInCU: 0xE783, offset: 0xE783, size: 0x8, addend: 0x0, symName: __ZNSt3__14swapB8ue170006IP5StockEENS_9enable_ifIXaasr21is_move_constructibleIT_EE5valuesr18is_move_assignableIS4_EE5valueEvE4typeERS4_S7_, symObjAddr: 0x7FA8, symBinAddr: 0x1000096F4, symSize: 0x3C }
  - { offsetInCU: 0xE7D4, offset: 0xE7D4, size: 0x8, addend: 0x0, symName: __ZNSt3__122__make_exception_guardB8ue170006INS_29_AllocatorDestroyRangeReverseINS_9allocatorI5StockEENS_16reverse_iteratorIPS3_EEEEEENS_28__exception_guard_exceptionsIT_EESA_, symObjAddr: 0x80AC, symBinAddr: 0x1000097F8, symSize: 0x4C }
  - { offsetInCU: 0xE80A, offset: 0xE80A, size: 0x8, addend: 0x0, symName: __ZNSt3__1neB8ue170006IP5StockS2_EEbRKNS_16reverse_iteratorIT_EERKNS3_IT0_EE, symObjAddr: 0x813C, symBinAddr: 0x100009888, symSize: 0x48 }
  - { offsetInCU: 0xE856, offset: 0xE856, size: 0x8, addend: 0x0, symName: __ZNSt3__112__to_addressB8ue170006INS_16reverse_iteratorIP5StockEEvEEu7__decayIDTclsr19__to_address_helperIT_EE6__callclsr3stdE7declvalIRKS5_EEEEES7_, symObjAddr: 0x81B8, symBinAddr: 0x100009904, symSize: 0x24 }
  - { offsetInCU: 0xE8B5, offset: 0xE8B5, size: 0x8, addend: 0x0, symName: __ZNSt3__119__allocator_destroyB8ue170006INS_9allocatorI5StockEENS_16reverse_iteratorINS4_IPS2_EEEES7_EEvRT_T0_T1_, symObjAddr: 0x8AE4, symBinAddr: 0x10000A230, symSize: 0x70 }
  - { offsetInCU: 0xE91A, offset: 0xE91A, size: 0x8, addend: 0x0, symName: __ZNSt3__1neB8ue170006INS_16reverse_iteratorIP5StockEES4_EEbRKNS1_IT_EERKNS1_IT0_EE, symObjAddr: 0x8B90, symBinAddr: 0x10000A2DC, symSize: 0x60 }
  - { offsetInCU: 0xE966, offset: 0xE966, size: 0x8, addend: 0x0, symName: __ZNSt3__112__to_addressB8ue170006INS_16reverse_iteratorINS1_IP5StockEEEEvEEu7__decayIDTclsr19__to_address_helperIT_EE6__callclsr3stdE7declvalIRKS6_EEEEES8_, symObjAddr: 0x8BF0, symBinAddr: 0x10000A33C, symSize: 0x24 }
  - { offsetInCU: 0xE9C5, offset: 0xE9C5, size: 0x8, addend: 0x0, symName: __ZNSt3__19push_heapB8ue170006INS_11__wrap_iterIP5OrderEE13buyer_functorEEvT_S6_T0_, symObjAddr: 0x9368, symBinAddr: 0x10000AAB4, symSize: 0x40 }
  - { offsetInCU: 0xEA1B, offset: 0xEA1B, size: 0x8, addend: 0x0, symName: __ZNSt3__119__allocate_at_leastB8ue170006INS_9allocatorI5OrderEEEENS_19__allocation_resultINS_16allocator_traitsIT_E7pointerEEERS6_m, symObjAddr: 0x9B1C, symBinAddr: 0x10000B268, symSize: 0x40 }
  - { offsetInCU: 0xEA5E, offset: 0xEA5E, size: 0x8, addend: 0x0, symName: __ZNSt3__142__uninitialized_allocator_move_if_noexceptB8ue170006INS_9allocatorI5OrderEENS_16reverse_iteratorIPS2_EES6_S2_vEET1_RT_T0_SA_S7_, symObjAddr: 0x9CD4, symBinAddr: 0x10000B420, symSize: 0x78 }
  - { offsetInCU: 0xEADB, offset: 0xEADB, size: 0x8, addend: 0x0, symName: __ZNSt3__14swapB8ue170006IP5OrderEENS_9enable_ifIXaasr21is_move_constructibleIT_EE5valuesr18is_move_assignableIS4_EE5valueEvE4typeERS4_S7_, symObjAddr: 0x9D98, symBinAddr: 0x10000B4E4, symSize: 0x3C }
  - { offsetInCU: 0xEB2C, offset: 0xEB2C, size: 0x8, addend: 0x0, symName: __ZNSt3__14moveB8ue170006INS_16reverse_iteratorIP5OrderEES4_EET0_T_S6_S5_, symObjAddr: 0x9E9C, symBinAddr: 0x10000B5E8, symSize: 0x78 }
  - { offsetInCU: 0xEB86, offset: 0xEB86, size: 0x8, addend: 0x0, symName: __ZNSt3__16__moveB8ue170006INS_17_ClassicAlgPolicyENS_16reverse_iteratorIP5OrderEES5_S5_EENS_4pairIT0_T2_EES7_T1_S8_, symObjAddr: 0x9F14, symBinAddr: 0x10000B660, symSize: 0x64 }
  - { offsetInCU: 0xEBF2, offset: 0xEBF2, size: 0x8, addend: 0x0, symName: __ZNSt3__123__dispatch_copy_or_moveB8ue170006INS_17_ClassicAlgPolicyENS_11__move_loopIS1_EENS_14__move_trivialENS_16reverse_iteratorIP5OrderEES8_S8_EENS_4pairIT2_T4_EESA_T3_SB_, symObjAddr: 0x9F78, symBinAddr: 0x10000B6C4, symSize: 0x64 }
  - { offsetInCU: 0xEC70, offset: 0xEC70, size: 0x8, addend: 0x0, symName: __ZNSt3__121__unwrap_and_dispatchB8ue170006INS_10__overloadINS_11__move_loopINS_17_ClassicAlgPolicyEEENS_14__move_trivialEEENS_16reverse_iteratorIP5OrderEESA_SA_Li0EEENS_4pairIT0_T2_EESC_T1_SD_, symObjAddr: 0x9FDC, symBinAddr: 0x10000B728, symSize: 0x12C }
  - { offsetInCU: 0xED00, offset: 0xED00, size: 0x8, addend: 0x0, symName: __ZNSt3__114__unwrap_rangeB8ue170006INS_16reverse_iteratorIP5OrderEES4_EENS_4pairIT0_S6_EET_S8_, symObjAddr: 0xA108, symBinAddr: 0x10000B854, symSize: 0x84 }
  - { offsetInCU: 0xEE20, offset: 0xEE20, size: 0x8, addend: 0x0, symName: __ZNSt3__113__unwrap_iterB8ue170006INS_16reverse_iteratorIP5OrderEENS_18__unwrap_iter_implIS4_Lb0EEELi0EEEDTclsrT0_8__unwrapclsr3stdE7declvalIT_EEEES8_, symObjAddr: 0xA228, symBinAddr: 0x10000B974, symSize: 0x44 }
  - { offsetInCU: 0xEE64, offset: 0xEE64, size: 0x8, addend: 0x0, symName: __ZNSt3__19make_pairB8ue170006INS_16reverse_iteratorIP5OrderEES4_EENS_4pairINS_18__unwrap_ref_decayIT_E4typeENS6_IT0_E4typeEEEOS7_OSA_, symObjAddr: 0xA26C, symBinAddr: 0x10000B9B8, symSize: 0x38 }
  - { offsetInCU: 0xEEB3, offset: 0xEEB3, size: 0x8, addend: 0x0, symName: __ZNSt3__114__rewrap_rangeB8ue170006INS_16reverse_iteratorIP5OrderEES4_EET_S5_T0_, symObjAddr: 0xA2A4, symBinAddr: 0x10000B9F0, symSize: 0x5C }
  - { offsetInCU: 0xEEFF, offset: 0xEEFF, size: 0x8, addend: 0x0, symName: __ZNSt3__113__rewrap_iterB8ue170006INS_16reverse_iteratorIP5OrderEES4_NS_18__unwrap_iter_implIS4_Lb0EEEEET_S7_T0_, symObjAddr: 0xA300, symBinAddr: 0x10000BA4C, symSize: 0x74 }
  - { offsetInCU: 0xEF54, offset: 0xEF54, size: 0x8, addend: 0x0, symName: __ZNSt3__1neB8ue170006IP5OrderS2_EEbRKNS_16reverse_iteratorIT_EERKNS3_IT0_EE, symObjAddr: 0xA374, symBinAddr: 0x10000BAC0, symSize: 0x48 }
  - { offsetInCU: 0xF00C, offset: 0xF00C, size: 0x8, addend: 0x0, symName: __ZNSt3__111__push_heapB8ue170006INS_17_ClassicAlgPolicyENS_11__wrap_iterIP5OrderEE13buyer_functorEEvT0_S7_RT1_, symObjAddr: 0xA704, symBinAddr: 0x10000BE50, symSize: 0x5C }
  - { offsetInCU: 0xF079, offset: 0xF079, size: 0x8, addend: 0x0, symName: __ZNSt3__1miB8ue170006IP5OrderS2_EEDTmicldtfp_4baseEcldtfp0_4baseEERKNS_11__wrap_iterIT_EERKNS4_IT0_EE, symObjAddr: 0xA760, symBinAddr: 0x10000BEAC, symSize: 0x48 }
  - { offsetInCU: 0xF0C5, offset: 0xF0C5, size: 0x8, addend: 0x0, symName: __ZNSt3__19__sift_upB8ue170006INS_17_ClassicAlgPolicyER13buyer_functorNS_11__wrap_iterIP5OrderEEEEvT1_S8_OT0_NS_15iterator_traitsIS8_E15difference_typeE, symObjAddr: 0xA7A8, symBinAddr: 0x10000BEF4, symSize: 0x16C }
  - { offsetInCU: 0xF175, offset: 0xF175, size: 0x8, addend: 0x0, symName: __ZNSt3__19push_heapB8ue170006INS_11__wrap_iterIP5OrderEE14seller_functorEEvT_S6_T0_, symObjAddr: 0xAB10, symBinAddr: 0x10000C25C, symSize: 0x40 }
  - { offsetInCU: 0xF1CB, offset: 0xF1CB, size: 0x8, addend: 0x0, symName: __ZNSt3__111__push_heapB8ue170006INS_17_ClassicAlgPolicyENS_11__wrap_iterIP5OrderEE14seller_functorEEvT0_S7_RT1_, symObjAddr: 0xAB50, symBinAddr: 0x10000C29C, symSize: 0x5C }
  - { offsetInCU: 0xF238, offset: 0xF238, size: 0x8, addend: 0x0, symName: __ZNSt3__19__sift_upB8ue170006INS_17_ClassicAlgPolicyER14seller_functorNS_11__wrap_iterIP5OrderEEEEvT1_S8_OT0_NS_15iterator_traitsIS8_E15difference_typeE, symObjAddr: 0xABAC, symBinAddr: 0x10000C2F8, symSize: 0x16C }
  - { offsetInCU: 0xF2E8, offset: 0xF2E8, size: 0x8, addend: 0x0, symName: __ZNSt3__18pop_heapB8ue170006INS_11__wrap_iterIP5OrderEE13buyer_functorEEvT_S6_T0_, symObjAddr: 0xADE8, symBinAddr: 0x10000C534, symSize: 0x58 }
  - { offsetInCU: 0xF34C, offset: 0xF34C, size: 0x8, addend: 0x0, symName: __ZNSt3__110__pop_heapB8ue170006INS_17_ClassicAlgPolicyE13buyer_functorNS_11__wrap_iterIP5OrderEEEEvT1_S7_RT0_NS_15iterator_traitsIS7_E15difference_typeE, symObjAddr: 0xAE6C, symBinAddr: 0x10000C5B8, symSize: 0x140 }
  - { offsetInCU: 0xF3FE, offset: 0xF3FE, size: 0x8, addend: 0x0, symName: __ZNSt3__1eqB8ue170006IP5OrderEEbRKNS_11__wrap_iterIT_EES7_, symObjAddr: 0xB0F8, symBinAddr: 0x10000C844, symSize: 0x48 }
  - { offsetInCU: 0xF441, offset: 0xF441, size: 0x8, addend: 0x0, symName: __ZNSt3__18pop_heapB8ue170006INS_11__wrap_iterIP5OrderEE14seller_functorEEvT_S6_T0_, symObjAddr: 0xB27C, symBinAddr: 0x10000C9C8, symSize: 0x58 }
  - { offsetInCU: 0xF4A5, offset: 0xF4A5, size: 0x8, addend: 0x0, symName: __ZNSt3__110__pop_heapB8ue170006INS_17_ClassicAlgPolicyE14seller_functorNS_11__wrap_iterIP5OrderEEEEvT1_S7_RT0_NS_15iterator_traitsIS7_E15difference_typeE, symObjAddr: 0xB2D4, symBinAddr: 0x10000CA20, symSize: 0x140 }
  - { offsetInCU: 0xF557, offset: 0xF557, size: 0x8, addend: 0x0, symName: __ZNSt3__119__allocate_at_leastB8ue170006INS_9allocatorIxEEEENS_19__allocation_resultINS_16allocator_traitsIT_E7pointerEEERS5_m, symObjAddr: 0xBC48, symBinAddr: 0x10000D394, symSize: 0x40 }
  - { offsetInCU: 0xF59A, offset: 0xF59A, size: 0x8, addend: 0x0, symName: __ZNSt3__142__uninitialized_allocator_move_if_noexceptB8ue170006INS_9allocatorIxEENS_16reverse_iteratorIPxEES5_xvEET1_RT_T0_S9_S6_, symObjAddr: 0xBDFC, symBinAddr: 0x10000D548, symSize: 0x78 }
  - { offsetInCU: 0xF617, offset: 0xF617, size: 0x8, addend: 0x0, symName: __ZNSt3__14swapB8ue170006IPxEENS_9enable_ifIXaasr21is_move_constructibleIT_EE5valuesr18is_move_assignableIS3_EE5valueEvE4typeERS3_S6_, symObjAddr: 0xBEC0, symBinAddr: 0x10000D60C, symSize: 0x3C }
  - { offsetInCU: 0xF668, offset: 0xF668, size: 0x8, addend: 0x0, symName: __ZNSt3__14moveB8ue170006INS_16reverse_iteratorIPxEES3_EET0_T_S5_S4_, symObjAddr: 0xBFA8, symBinAddr: 0x10000D6F4, symSize: 0x78 }
  - { offsetInCU: 0xF6C2, offset: 0xF6C2, size: 0x8, addend: 0x0, symName: __ZNSt3__16__moveB8ue170006INS_17_ClassicAlgPolicyENS_16reverse_iteratorIPxEES4_S4_EENS_4pairIT0_T2_EES6_T1_S7_, symObjAddr: 0xC020, symBinAddr: 0x10000D76C, symSize: 0x64 }
  - { offsetInCU: 0xF72E, offset: 0xF72E, size: 0x8, addend: 0x0, symName: __ZNSt3__123__dispatch_copy_or_moveB8ue170006INS_17_ClassicAlgPolicyENS_11__move_loopIS1_EENS_14__move_trivialENS_16reverse_iteratorIPxEES7_S7_EENS_4pairIT2_T4_EES9_T3_SA_, symObjAddr: 0xC084, symBinAddr: 0x10000D7D0, symSize: 0x64 }
  - { offsetInCU: 0xF7AC, offset: 0xF7AC, size: 0x8, addend: 0x0, symName: __ZNSt3__121__unwrap_and_dispatchB8ue170006INS_10__overloadINS_11__move_loopINS_17_ClassicAlgPolicyEEENS_14__move_trivialEEENS_16reverse_iteratorIPxEES9_S9_Li0EEENS_4pairIT0_T2_EESB_T1_SC_, symObjAddr: 0xC0E8, symBinAddr: 0x10000D834, symSize: 0x12C }
  - { offsetInCU: 0xF83C, offset: 0xF83C, size: 0x8, addend: 0x0, symName: __ZNSt3__114__unwrap_rangeB8ue170006INS_16reverse_iteratorIPxEES3_EENS_4pairIT0_S5_EET_S7_, symObjAddr: 0xC214, symBinAddr: 0x10000D960, symSize: 0x84 }
  - { offsetInCU: 0xF95C, offset: 0xF95C, size: 0x8, addend: 0x0, symName: __ZNSt3__113__unwrap_iterB8ue170006INS_16reverse_iteratorIPxEENS_18__unwrap_iter_implIS3_Lb0EEELi0EEEDTclsrT0_8__unwrapclsr3stdE7declvalIT_EEEES7_, symObjAddr: 0xC338, symBinAddr: 0x10000DA84, symSize: 0x44 }
  - { offsetInCU: 0xF9A0, offset: 0xF9A0, size: 0x8, addend: 0x0, symName: __ZNSt3__19make_pairB8ue170006INS_16reverse_iteratorIPxEES3_EENS_4pairINS_18__unwrap_ref_decayIT_E4typeENS5_IT0_E4typeEEEOS6_OS9_, symObjAddr: 0xC37C, symBinAddr: 0x10000DAC8, symSize: 0x38 }
  - { offsetInCU: 0xF9EF, offset: 0xF9EF, size: 0x8, addend: 0x0, symName: __ZNSt3__114__rewrap_rangeB8ue170006INS_16reverse_iteratorIPxEES3_EET_S4_T0_, symObjAddr: 0xC3B4, symBinAddr: 0x10000DB00, symSize: 0x5C }
  - { offsetInCU: 0xFA3B, offset: 0xFA3B, size: 0x8, addend: 0x0, symName: __ZNSt3__113__rewrap_iterB8ue170006INS_16reverse_iteratorIPxEES3_NS_18__unwrap_iter_implIS3_Lb0EEEEET_S6_T0_, symObjAddr: 0xC410, symBinAddr: 0x10000DB5C, symSize: 0x74 }
  - { offsetInCU: 0xFA90, offset: 0xFA90, size: 0x8, addend: 0x0, symName: __ZNSt3__1neB8ue170006IPxS1_EEbRKNS_16reverse_iteratorIT_EERKNS2_IT0_EE, symObjAddr: 0xC484, symBinAddr: 0x10000DBD0, symSize: 0x48 }
  - { offsetInCU: 0xFB48, offset: 0xFB48, size: 0x8, addend: 0x0, symName: __ZNSt3__19push_heapB8ue170006INS_11__wrap_iterIPxEENS_4lessIxEEEEvT_S6_T0_, symObjAddr: 0xC82C, symBinAddr: 0x10000DF78, symSize: 0x40 }
  - { offsetInCU: 0xFB9E, offset: 0xFB9E, size: 0x8, addend: 0x0, symName: __ZNSt3__111__push_heapB8ue170006INS_17_ClassicAlgPolicyENS_11__wrap_iterIPxEENS_4lessIxEEEEvT0_S7_RT1_, symObjAddr: 0xC8CC, symBinAddr: 0x10000E018, symSize: 0x5C }
  - { offsetInCU: 0xFC0B, offset: 0xFC0B, size: 0x8, addend: 0x0, symName: __ZNSt3__1miB8ue170006IPxS1_EEDTmicldtfp_4baseEcldtfp0_4baseEERKNS_11__wrap_iterIT_EERKNS3_IT0_EE, symObjAddr: 0xC928, symBinAddr: 0x10000E074, symSize: 0x48 }
  - { offsetInCU: 0xFC57, offset: 0xFC57, size: 0x8, addend: 0x0, symName: __ZNSt3__19__sift_upB8ue170006INS_17_ClassicAlgPolicyERNS_4lessIxEENS_11__wrap_iterIPxEEEEvT1_S8_OT0_NS_15iterator_traitsIS8_E15difference_typeE, symObjAddr: 0xC970, symBinAddr: 0x10000E0BC, symSize: 0x168 }
  - { offsetInCU: 0xFD07, offset: 0xFD07, size: 0x8, addend: 0x0, symName: __ZNSt3__19push_heapB8ue170006INS_11__wrap_iterIPxEENS_7greaterIxEEEEvT_S6_T0_, symObjAddr: 0xCC70, symBinAddr: 0x10000E3BC, symSize: 0x40 }
  - { offsetInCU: 0xFD5D, offset: 0xFD5D, size: 0x8, addend: 0x0, symName: __ZNSt3__111__push_heapB8ue170006INS_17_ClassicAlgPolicyENS_11__wrap_iterIPxEENS_7greaterIxEEEEvT0_S7_RT1_, symObjAddr: 0xCCB0, symBinAddr: 0x10000E3FC, symSize: 0x5C }
  - { offsetInCU: 0xFDCA, offset: 0xFDCA, size: 0x8, addend: 0x0, symName: __ZNSt3__19__sift_upB8ue170006INS_17_ClassicAlgPolicyERNS_7greaterIxEENS_11__wrap_iterIPxEEEEvT1_S8_OT0_NS_15iterator_traitsIS8_E15difference_typeE, symObjAddr: 0xCD0C, symBinAddr: 0x10000E458, symSize: 0x168 }
  - { offsetInCU: 0xFE7A, offset: 0xFE7A, size: 0x8, addend: 0x0, symName: __ZNSt3__18pop_heapB8ue170006INS_11__wrap_iterIPxEENS_4lessIxEEEEvT_S6_T0_, symObjAddr: 0xCEA8, symBinAddr: 0x10000E5F4, symSize: 0x58 }
  - { offsetInCU: 0xFEDE, offset: 0xFEDE, size: 0x8, addend: 0x0, symName: __ZNSt3__110__pop_heapB8ue170006INS_17_ClassicAlgPolicyENS_4lessIxEENS_11__wrap_iterIPxEEEEvT1_S7_RT0_NS_15iterator_traitsIS7_E15difference_typeE, symObjAddr: 0xCF2C, symBinAddr: 0x10000E678, symSize: 0x144 }
  - { offsetInCU: 0xFF8E, offset: 0xFF8E, size: 0x8, addend: 0x0, symName: __ZNSt3__1eqB8ue170006IPxEEbRKNS_11__wrap_iterIT_EES6_, symObjAddr: 0xD1BC, symBinAddr: 0x10000E908, symSize: 0x48 }
  - { offsetInCU: 0xFFD1, offset: 0xFFD1, size: 0x8, addend: 0x0, symName: __ZNSt3__18pop_heapB8ue170006INS_11__wrap_iterIPxEENS_7greaterIxEEEEvT_S6_T0_, symObjAddr: 0xD324, symBinAddr: 0x10000EA70, symSize: 0x58 }
  - { offsetInCU: 0x10035, offset: 0x10035, size: 0x8, addend: 0x0, symName: __ZNSt3__110__pop_heapB8ue170006INS_17_ClassicAlgPolicyENS_7greaterIxEENS_11__wrap_iterIPxEEEEvT1_S7_RT0_NS_15iterator_traitsIS7_E15difference_typeE, symObjAddr: 0xD37C, symBinAddr: 0x10000EAC8, symSize: 0x144 }
  - { offsetInCU: 0x10593, offset: 0x10593, size: 0x8, addend: 0x0, symName: __ZSt28__throw_bad_array_new_lengthB8ue170006v, symObjAddr: 0x60B4, symBinAddr: 0x100007800, symSize: 0x34 }
  - { offsetInCU: 0x10A47, offset: 0x10A47, size: 0x8, addend: 0x0, symName: __ZN8P2random7PR_initERNSt3__118basic_stringstreamIcNS0_11char_traitsIcEENS0_9allocatorIcEEEEjjjjj, symObjAddr: 0xE70, symBinAddr: 0x1000025BC, symSize: 0x274 }
  - { offsetInCU: 0x10A67, offset: 0x10A67, size: 0x8, addend: 0x0, symName: __ZZN8P2random7PR_initERNSt3__118basic_stringstreamIcNS0_11char_traitsIcEENS0_9allocatorIcEEEEjjjjjE3rng, symObjAddr: 0xDD38, symBinAddr: 0x100014000, symSize: 0x0 }
  - { offsetInCU: 0x11563, offset: 0x11563, size: 0x8, addend: 0x0, symName: __ZNSt3__16vectorI6TraderNS_9allocatorIS1_EEE26__swap_out_circular_bufferERNS_14__split_bufferIS1_RS3_EE, symObjAddr: 0x5820, symBinAddr: 0x100006F6C, symSize: 0x110 }
  - { offsetInCU: 0x115BA, offset: 0x115BA, size: 0x8, addend: 0x0, symName: __ZNSt3__16vectorI5StockNS_9allocatorIS1_EEE26__swap_out_circular_bufferERNS_14__split_bufferIS1_RS3_EE, symObjAddr: 0x71CC, symBinAddr: 0x100008918, symSize: 0x110 }
  - { offsetInCU: 0x1164E, offset: 0x1164E, size: 0x8, addend: 0x0, symName: __ZNSt3__16vectorI5OrderNS_9allocatorIS1_EEE26__swap_out_circular_bufferERNS_14__split_bufferIS1_RS3_EE, symObjAddr: 0x97A4, symBinAddr: 0x10000AEF0, symSize: 0x110 }
  - { offsetInCU: 0x116A5, offset: 0x116A5, size: 0x8, addend: 0x0, symName: __ZNSt3__16vectorIxNS_9allocatorIxEEE26__swap_out_circular_bufferERNS_14__split_bufferIxRS2_EE, symObjAddr: 0xB8E8, symBinAddr: 0x10000D034, symSize: 0x110 }
  - { offsetInCU: 0x13B2B, offset: 0x13B2B, size: 0x8, addend: 0x0, symName: _main, symObjAddr: 0x0, symBinAddr: 0x10000174C, symSize: 0xC0 }
  - { offsetInCU: 0x13CE1, offset: 0x13CE1, size: 0x8, addend: 0x0, symName: __ZN6MarketC1Ev, symObjAddr: 0xC0, symBinAddr: 0x10000180C, symSize: 0x2C }
  - { offsetInCU: 0x13D0D, offset: 0x13D0D, size: 0x8, addend: 0x0, symName: __ZN6Market18parse_command_lineEiPPc, symObjAddr: 0xEC, symBinAddr: 0x100001838, symSize: 0x154 }
  - { offsetInCU: 0x13D7B, offset: 0x13D7B, size: 0x8, addend: 0x0, symName: __ZN6Market10read_inputEv, symObjAddr: 0x278, symBinAddr: 0x1000019C4, symSize: 0x28C }
  - { offsetInCU: 0x13E2F, offset: 0x13E2F, size: 0x8, addend: 0x0, symName: __ZN6Market13median_outputEv, symObjAddr: 0x504, symBinAddr: 0x100001C50, symSize: 0xE8 }
  - { offsetInCU: 0x13E92, offset: 0x13E92, size: 0x8, addend: 0x0, symName: __ZN6Market14summary_outputEv, symObjAddr: 0x5EC, symBinAddr: 0x100001D38, symSize: 0x6C }
  - { offsetInCU: 0x13EBA, offset: 0x13EBA, size: 0x8, addend: 0x0, symName: __ZN6Market13trader_outputEv, symObjAddr: 0x658, symBinAddr: 0x100001DA4, symSize: 0xF8 }
  - { offsetInCU: 0x13F1A, offset: 0x13F1A, size: 0x8, addend: 0x0, symName: __ZN6MarketD1Ev, symObjAddr: 0x750, symBinAddr: 0x100001E9C, symSize: 0x2C }
  - { offsetInCU: 0x13F46, offset: 0x13F46, size: 0x8, addend: 0x0, symName: __ZNSt3__112basic_stringIcNS_11char_traitsIcEENS_9allocatorIcEEEC1B8ue170006Ev, symObjAddr: 0x7F8, symBinAddr: 0x100001F44, symSize: 0x2C }
  - { offsetInCU: 0x13F70, offset: 0x13F70, size: 0x8, addend: 0x0, symName: __ZNSt3__16vectorI6TraderNS_9allocatorIS1_EEE6resizeEm, symObjAddr: 0xB88, symBinAddr: 0x1000022D4, symSize: 0x9C }
  - { offsetInCU: 0x13FB6, offset: 0x13FB6, size: 0x8, addend: 0x0, symName: __ZNSt3__16vectorI5StockNS_9allocatorIS1_EEE6resizeEm, symObjAddr: 0xC24, symBinAddr: 0x100002370, symSize: 0x9C }
  - { offsetInCU: 0x13FFC, offset: 0x13FFC, size: 0x8, addend: 0x0, symName: __ZNSt3__118basic_stringstreamIcNS_11char_traitsIcEENS_9allocatorIcEEEC1B8ue170006Ev, symObjAddr: 0xCC0, symBinAddr: 0x10000240C, symSize: 0x104 }
  - { offsetInCU: 0x14026, offset: 0x14026, size: 0x8, addend: 0x0, symName: __ZN6Market13processOrdersERNSt3__113basic_istreamIcNS0_11char_traitsIcEEEE, symObjAddr: 0x10E4, symBinAddr: 0x100002830, symSize: 0x3F4 }
  - { offsetInCU: 0x14117, offset: 0x14117, size: 0x8, addend: 0x0, symName: __ZNSt3__118basic_stringstreamIcNS_11char_traitsIcEENS_9allocatorIcEEED1Ev, symObjAddr: 0x14D8, symBinAddr: 0x100002C24, symSize: 0x40 }
  - { offsetInCU: 0x14144, offset: 0x14144, size: 0x8, addend: 0x0, symName: __ZNKSt3__19basic_iosIcNS_11char_traitsIcEEEcvbB8ue170006Ev, symObjAddr: 0x16A4, symBinAddr: 0x100002DF0, symSize: 0x2C }
  - { offsetInCU: 0x1416A, offset: 0x1416A, size: 0x8, addend: 0x0, symName: __ZN5OrderC1Exxbxxx, symObjAddr: 0x16D0, symBinAddr: 0x100002E1C, symSize: 0x68 }
  - { offsetInCU: 0x141E8, offset: 0x141E8, size: 0x8, addend: 0x0, symName: __ZNSt3__16vectorI5StockNS_9allocatorIS1_EEEixB8ue170006Em, symObjAddr: 0x1738, symBinAddr: 0x100002E84, symSize: 0x2C }
  - { offsetInCU: 0x1421F, offset: 0x1421F, size: 0x8, addend: 0x0, symName: __ZNSt3__114priority_queueI5OrderNS_6vectorIS1_NS_9allocatorIS1_EEEE13buyer_functorE4pushERKS1_, symObjAddr: 0x1764, symBinAddr: 0x100002EB0, symSize: 0x58 }
  - { offsetInCU: 0x14256, offset: 0x14256, size: 0x8, addend: 0x0, symName: __ZNSt3__114priority_queueI5OrderNS_6vectorIS1_NS_9allocatorIS1_EEEE14seller_functorE4pushERKS1_, symObjAddr: 0x17BC, symBinAddr: 0x100002F08, symSize: 0x58 }
  - { offsetInCU: 0x1428D, offset: 0x1428D, size: 0x8, addend: 0x0, symName: __ZN6Market5matchEx, symObjAddr: 0x1814, symBinAddr: 0x100002F60, symSize: 0x2F8 }
  - { offsetInCU: 0x14329, offset: 0x14329, size: 0x8, addend: 0x0, symName: __ZNKSt3__114priority_queueI5OrderNS_6vectorIS1_NS_9allocatorIS1_EEEE13buyer_functorE5emptyB8ue170006Ev, symObjAddr: 0x1B0C, symBinAddr: 0x100003258, symSize: 0x28 }
  - { offsetInCU: 0x1434F, offset: 0x1434F, size: 0x8, addend: 0x0, symName: __ZNKSt3__114priority_queueI5OrderNS_6vectorIS1_NS_9allocatorIS1_EEEE14seller_functorE5emptyB8ue170006Ev, symObjAddr: 0x1B34, symBinAddr: 0x100003280, symSize: 0x28 }
  - { offsetInCU: 0x14375, offset: 0x14375, size: 0x8, addend: 0x0, symName: __ZNKSt3__114priority_queueI5OrderNS_6vectorIS1_NS_9allocatorIS1_EEEE13buyer_functorE3topB8ue170006Ev, symObjAddr: 0x1B5C, symBinAddr: 0x1000032A8, symSize: 0x24 }
  - { offsetInCU: 0x1439B, offset: 0x1439B, size: 0x8, addend: 0x0, symName: __ZNKSt3__114priority_queueI5OrderNS_6vectorIS1_NS_9allocatorIS1_EEEE14seller_functorE3topB8ue170006Ev, symObjAddr: 0x1B80, symBinAddr: 0x1000032CC, symSize: 0x24 }
  - { offsetInCU: 0x143C1, offset: 0x143C1, size: 0x8, addend: 0x0, symName: __ZN6Market14verbose_outputER5OrderS1_xx, symObjAddr: 0x1BA4, symBinAddr: 0x1000032F0, symSize: 0xB8 }
  - { offsetInCU: 0x14421, offset: 0x14421, size: 0x8, addend: 0x0, symName: __ZNSt3__16vectorI6TraderNS_9allocatorIS1_EEEixB8ue170006Em, symObjAddr: 0x1C5C, symBinAddr: 0x1000033A8, symSize: 0x2C }
  - { offsetInCU: 0x14458, offset: 0x14458, size: 0x8, addend: 0x0, symName: __ZNSt3__114priority_queueI5OrderNS_6vectorIS1_NS_9allocatorIS1_EEEE13buyer_functorE3popEv, symObjAddr: 0x1C88, symBinAddr: 0x1000033D4, symSize: 0x50 }
  - { offsetInCU: 0x14480, offset: 0x14480, size: 0x8, addend: 0x0, symName: __ZNSt3__114priority_queueI5OrderNS_6vectorIS1_NS_9allocatorIS1_EEEE14seller_functorE3popEv, symObjAddr: 0x1CD8, symBinAddr: 0x100003424, symSize: 0x50 }
  - { offsetInCU: 0x144A8, offset: 0x144A8, size: 0x8, addend: 0x0, symName: __ZN5Stock13update_medianExx, symObjAddr: 0x1D28, symBinAddr: 0x100003474, symSize: 0x194 }
  - { offsetInCU: 0x144EC, offset: 0x144EC, size: 0x8, addend: 0x0, symName: __ZNSt3__16vectorIxNS_9allocatorIxEEE9push_backB8ue170006ERKx, symObjAddr: 0x1EBC, symBinAddr: 0x100003608, symSize: 0x6C }
  - { offsetInCU: 0x14523, offset: 0x14523, size: 0x8, addend: 0x0, symName: __ZNKSt3__114priority_queueIxNS_6vectorIxNS_9allocatorIxEEEENS_4lessIxEEE5emptyB8ue170006Ev, symObjAddr: 0x1F28, symBinAddr: 0x100003674, symSize: 0x28 }
  - { offsetInCU: 0x14549, offset: 0x14549, size: 0x8, addend: 0x0, symName: __ZNKSt3__114priority_queueIxNS_6vectorIxNS_9allocatorIxEEEENS_4lessIxEEE3topB8ue170006Ev, symObjAddr: 0x1F50, symBinAddr: 0x10000369C, symSize: 0x24 }
  - { offsetInCU: 0x1456F, offset: 0x1456F, size: 0x8, addend: 0x0, symName: __ZNSt3__114priority_queueIxNS_6vectorIxNS_9allocatorIxEEEENS_4lessIxEEE4pushERKx, symObjAddr: 0x1F74, symBinAddr: 0x1000036C0, symSize: 0x58 }
  - { offsetInCU: 0x145A6, offset: 0x145A6, size: 0x8, addend: 0x0, symName: __ZNSt3__114priority_queueIxNS_6vectorIxNS_9allocatorIxEEEENS_7greaterIxEEE4pushERKx, symObjAddr: 0x1FCC, symBinAddr: 0x100003718, symSize: 0x58 }
  - { offsetInCU: 0x145DD, offset: 0x145DD, size: 0x8, addend: 0x0, symName: __ZNKSt3__114priority_queueIxNS_6vectorIxNS_9allocatorIxEEEENS_4lessIxEEE4sizeB8ue170006Ev, symObjAddr: 0x2024, symBinAddr: 0x100003770, symSize: 0x24 }
  - { offsetInCU: 0x14603, offset: 0x14603, size: 0x8, addend: 0x0, symName: __ZNKSt3__114priority_queueIxNS_6vectorIxNS_9allocatorIxEEEENS_7greaterIxEEE4sizeB8ue170006Ev, symObjAddr: 0x2048, symBinAddr: 0x100003794, symSize: 0x24 }
  - { offsetInCU: 0x14629, offset: 0x14629, size: 0x8, addend: 0x0, symName: __ZNSt3__114priority_queueIxNS_6vectorIxNS_9allocatorIxEEEENS_4lessIxEEE3popEv, symObjAddr: 0x206C, symBinAddr: 0x1000037B8, symSize: 0x50 }
  - { offsetInCU: 0x14651, offset: 0x14651, size: 0x8, addend: 0x0, symName: __ZNKSt3__114priority_queueIxNS_6vectorIxNS_9allocatorIxEEEENS_7greaterIxEEE3topB8ue170006Ev, symObjAddr: 0x20BC, symBinAddr: 0x100003808, symSize: 0x24 }
  - { offsetInCU: 0x14677, offset: 0x14677, size: 0x8, addend: 0x0, symName: __ZNSt3__114priority_queueIxNS_6vectorIxNS_9allocatorIxEEEENS_7greaterIxEEE3popEv, symObjAddr: 0x20E0, symBinAddr: 0x10000382C, symSize: 0x50 }
  - { offsetInCU: 0x1469F, offset: 0x1469F, size: 0x8, addend: 0x0, symName: __ZN5Stock10get_medianEv, symObjAddr: 0x2130, symBinAddr: 0x10000387C, symSize: 0xAC }
  - { offsetInCU: 0x146C7, offset: 0x146C7, size: 0x8, addend: 0x0, symName: __ZNKSt3__16vectorIxNS_9allocatorIxEEE5emptyB8ue170006Ev, symObjAddr: 0x21DC, symBinAddr: 0x100003928, symSize: 0x28 }
  - { offsetInCU: 0x146ED, offset: 0x146ED, size: 0x8, addend: 0x0, symName: __ZN6MarketC2Ev, symObjAddr: 0x2204, symBinAddr: 0x100003950, symSize: 0x58 }
  - { offsetInCU: 0x14719, offset: 0x14719, size: 0x8, addend: 0x0, symName: __ZNSt3__16vectorI5StockNS_9allocatorIS1_EEEC1B8ue170006Ev, symObjAddr: 0x225C, symBinAddr: 0x1000039A8, symSize: 0x2C }
  - { offsetInCU: 0x14743, offset: 0x14743, size: 0x8, addend: 0x0, symName: __ZNSt3__16vectorI6TraderNS_9allocatorIS1_EEEC1B8ue170006Ev, symObjAddr: 0x2288, symBinAddr: 0x1000039D4, symSize: 0x2C }
  - { offsetInCU: 0x1476D, offset: 0x1476D, size: 0x8, addend: 0x0, symName: __ZNSt3__16vectorI5StockNS_9allocatorIS1_EEEC2B8ue170006Ev, symObjAddr: 0x22B4, symBinAddr: 0x100003A00, symSize: 0x4C }
  - { offsetInCU: 0x147A3, offset: 0x147A3, size: 0x8, addend: 0x0, symName: __ZNSt3__117__compressed_pairIP5StockNS_9allocatorIS1_EEEC1B8ue170006IDnNS_18__default_init_tagEEEOT_OT0_, symObjAddr: 0x2300, symBinAddr: 0x100003A4C, symSize: 0x3C }
  - { offsetInCU: 0x147FB, offset: 0x147FB, size: 0x8, addend: 0x0, symName: __ZNSt3__117__compressed_pairIP5StockNS_9allocatorIS1_EEEC2B8ue170006IDnNS_18__default_init_tagEEEOT_OT0_, symObjAddr: 0x2348, symBinAddr: 0x100003A94, symSize: 0x40 }
  - { offsetInCU: 0x14853, offset: 0x14853, size: 0x8, addend: 0x0, symName: __ZNSt3__122__compressed_pair_elemIP5StockLi0ELb0EEC2B8ue170006IDnvEEOT_, symObjAddr: 0x2388, symBinAddr: 0x100003AD4, symSize: 0x1C }
  - { offsetInCU: 0x14895, offset: 0x14895, size: 0x8, addend: 0x0, symName: __ZNSt3__122__compressed_pair_elemINS_9allocatorI5StockEELi1ELb1EEC2B8ue170006ENS_18__default_init_tagE, symObjAddr: 0x23A4, symBinAddr: 0x100003AF0, symSize: 0x2C }
  - { offsetInCU: 0x148CA, offset: 0x148CA, size: 0x8, addend: 0x0, symName: __ZNSt3__19allocatorI5StockEC2B8ue170006Ev, symObjAddr: 0x23D0, symBinAddr: 0x100003B1C, symSize: 0x2C }
  - { offsetInCU: 0x148F4, offset: 0x148F4, size: 0x8, addend: 0x0, symName: __ZNSt3__116__non_trivial_ifILb1ENS_9allocatorI5StockEEEC2B8ue170006Ev, symObjAddr: 0x23FC, symBinAddr: 0x100003B48, symSize: 0x14 }
  - { offsetInCU: 0x1491E, offset: 0x1491E, size: 0x8, addend: 0x0, symName: __ZNSt3__16vectorI6TraderNS_9allocatorIS1_EEEC2B8ue170006Ev, symObjAddr: 0x2410, symBinAddr: 0x100003B5C, symSize: 0x4C }
  - { offsetInCU: 0x14948, offset: 0x14948, size: 0x8, addend: 0x0, symName: __ZNSt3__117__compressed_pairIP6TraderNS_9allocatorIS1_EEEC1B8ue170006IDnNS_18__default_init_tagEEEOT_OT0_, symObjAddr: 0x245C, symBinAddr: 0x100003BA8, symSize: 0x3C }
  - { offsetInCU: 0x149A0, offset: 0x149A0, size: 0x8, addend: 0x0, symName: __ZNSt3__117__compressed_pairIP6TraderNS_9allocatorIS1_EEEC2B8ue170006IDnNS_18__default_init_tagEEEOT_OT0_, symObjAddr: 0x2498, symBinAddr: 0x100003BE4, symSize: 0x40 }
  - { offsetInCU: 0x149F8, offset: 0x149F8, size: 0x8, addend: 0x0, symName: __ZNSt3__122__compressed_pair_elemIP6TraderLi0ELb0EEC2B8ue170006IDnvEEOT_, symObjAddr: 0x24D8, symBinAddr: 0x100003C24, symSize: 0x1C }
  - { offsetInCU: 0x14A3A, offset: 0x14A3A, size: 0x8, addend: 0x0, symName: __ZNSt3__122__compressed_pair_elemINS_9allocatorI6TraderEELi1ELb1EEC2B8ue170006ENS_18__default_init_tagE, symObjAddr: 0x24F4, symBinAddr: 0x100003C40, symSize: 0x2C }
  - { offsetInCU: 0x14A6F, offset: 0x14A6F, size: 0x8, addend: 0x0, symName: __ZNSt3__19allocatorI6TraderEC2B8ue170006Ev, symObjAddr: 0x2520, symBinAddr: 0x100003C6C, symSize: 0x2C }
  - { offsetInCU: 0x14A99, offset: 0x14A99, size: 0x8, addend: 0x0, symName: __ZNSt3__116__non_trivial_ifILb1ENS_9allocatorI6TraderEEEC2B8ue170006Ev, symObjAddr: 0x254C, symBinAddr: 0x100003C98, symSize: 0x14 }
  - { offsetInCU: 0x14AC3, offset: 0x14AC3, size: 0x8, addend: 0x0, symName: __ZN6MarketD2Ev, symObjAddr: 0x2560, symBinAddr: 0x100003CAC, symSize: 0x3C }
  - { offsetInCU: 0x14AEF, offset: 0x14AEF, size: 0x8, addend: 0x0, symName: __ZNSt3__16vectorI6TraderNS_9allocatorIS1_EEED1B8ue170006Ev, symObjAddr: 0x259C, symBinAddr: 0x100003CE8, symSize: 0x2C }
  - { offsetInCU: 0x14B19, offset: 0x14B19, size: 0x8, addend: 0x0, symName: __ZNSt3__16vectorI5StockNS_9allocatorIS1_EEED1B8ue170006Ev, symObjAddr: 0x25C8, symBinAddr: 0x100003D14, symSize: 0x2C }
  - { offsetInCU: 0x14B43, offset: 0x14B43, size: 0x8, addend: 0x0, symName: __ZNSt3__16vectorI6TraderNS_9allocatorIS1_EEED2B8ue170006Ev, symObjAddr: 0x25F4, symBinAddr: 0x100003D40, symSize: 0x44 }
  - { offsetInCU: 0x14B6D, offset: 0x14B6D, size: 0x8, addend: 0x0, symName: __ZNSt3__16vectorI6TraderNS_9allocatorIS1_EEE16__destroy_vectorC1B8ue170006ERS4_, symObjAddr: 0x2638, symBinAddr: 0x100003D84, symSize: 0x34 }
  - { offsetInCU: 0x14BA6, offset: 0x14BA6, size: 0x8, addend: 0x0, symName: __ZNSt3__16vectorI6TraderNS_9allocatorIS1_EEE16__destroy_vectorclB8ue170006Ev, symObjAddr: 0x266C, symBinAddr: 0x100003DB8, symSize: 0x90 }
  - { offsetInCU: 0x14BCC, offset: 0x14BCC, size: 0x8, addend: 0x0, symName: __ZNSt3__16vectorI6TraderNS_9allocatorIS1_EEE16__destroy_vectorC2B8ue170006ERS4_, symObjAddr: 0x26FC, symBinAddr: 0x100003E48, symSize: 0x20 }
  - { offsetInCU: 0x14C05, offset: 0x14C05, size: 0x8, addend: 0x0, symName: __ZNSt3__16vectorI6TraderNS_9allocatorIS1_EEE7__clearB8ue170006Ev, symObjAddr: 0x271C, symBinAddr: 0x100003E68, symSize: 0x28 }
  - { offsetInCU: 0x14C2B, offset: 0x14C2B, size: 0x8, addend: 0x0, symName: __ZNKSt3__16vectorI6TraderNS_9allocatorIS1_EEE17__annotate_deleteB8ue170006Ev, symObjAddr: 0x2744, symBinAddr: 0x100003E90, symSize: 0xD4 }
  - { offsetInCU: 0x14C51, offset: 0x14C51, size: 0x8, addend: 0x0, symName: __ZNSt3__116allocator_traitsINS_9allocatorI6TraderEEE10deallocateB8ue170006ERS3_PS2_m, symObjAddr: 0x2818, symBinAddr: 0x100003F64, symSize: 0x34 }
  - { offsetInCU: 0x14C93, offset: 0x14C93, size: 0x8, addend: 0x0, symName: __ZNSt3__16vectorI6TraderNS_9allocatorIS1_EEE7__allocB8ue170006Ev, symObjAddr: 0x284C, symBinAddr: 0x100003F98, symSize: 0x28 }
  - { offsetInCU: 0x14CB9, offset: 0x14CB9, size: 0x8, addend: 0x0, symName: __ZNKSt3__16vectorI6TraderNS_9allocatorIS1_EEE8capacityB8ue170006Ev, symObjAddr: 0x2874, symBinAddr: 0x100003FC0, symSize: 0x40 }
  - { offsetInCU: 0x14CDF, offset: 0x14CDF, size: 0x8, addend: 0x0, symName: __ZNSt3__16vectorI6TraderNS_9allocatorIS1_EEE22__base_destruct_at_endB8ue170006EPS1_, symObjAddr: 0x28B4, symBinAddr: 0x100004000, symSize: 0x8C }
  - { offsetInCU: 0x14D23, offset: 0x14D23, size: 0x8, addend: 0x0, symName: __ZNSt3__116allocator_traitsINS_9allocatorI6TraderEEE7destroyB8ue170006IS2_vEEvRS3_PT_, symObjAddr: 0x2940, symBinAddr: 0x10000408C, symSize: 0x2C }
  - { offsetInCU: 0x14D60, offset: 0x14D60, size: 0x8, addend: 0x0, symName: __ZNSt3__19allocatorI6TraderE7destroyB8ue170006EPS1_, symObjAddr: 0x2980, symBinAddr: 0x1000040CC, symSize: 0x14 }
  - { offsetInCU: 0x14D94, offset: 0x14D94, size: 0x8, addend: 0x0, symName: __ZNKSt3__16vectorI6TraderNS_9allocatorIS1_EEE31__annotate_contiguous_containerB8ue170006EPKvS6_S6_S6_, symObjAddr: 0x2994, symBinAddr: 0x1000040E0, symSize: 0x20 }
  - { offsetInCU: 0x14DE6, offset: 0x14DE6, size: 0x8, addend: 0x0, symName: __ZNKSt3__16vectorI6TraderNS_9allocatorIS1_EEE4dataB8ue170006Ev, symObjAddr: 0x29B4, symBinAddr: 0x100004100, symSize: 0x28 }
  - { offsetInCU: 0x14E0C, offset: 0x14E0C, size: 0x8, addend: 0x0, symName: __ZNKSt3__16vectorI6TraderNS_9allocatorIS1_EEE4sizeB8ue170006Ev, symObjAddr: 0x29DC, symBinAddr: 0x100004128, symSize: 0x28 }
  - { offsetInCU: 0x14E32, offset: 0x14E32, size: 0x8, addend: 0x0, symName: __ZNSt3__19allocatorI6TraderE10deallocateB8ue170006EPS1_m, symObjAddr: 0x2A04, symBinAddr: 0x100004150, symSize: 0x44 }
  - { offsetInCU: 0x14E74, offset: 0x14E74, size: 0x8, addend: 0x0, symName: __ZNSt3__117__compressed_pairIP6TraderNS_9allocatorIS1_EEE6secondB8ue170006Ev, symObjAddr: 0x2B70, symBinAddr: 0x1000042BC, symSize: 0x24 }
  - { offsetInCU: 0x14E9A, offset: 0x14E9A, size: 0x8, addend: 0x0, symName: __ZNSt3__122__compressed_pair_elemINS_9allocatorI6TraderEELi1ELb1EE5__getB8ue170006Ev, symObjAddr: 0x2B94, symBinAddr: 0x1000042E0, symSize: 0x14 }
  - { offsetInCU: 0x14EC0, offset: 0x14EC0, size: 0x8, addend: 0x0, symName: __ZNKSt3__16vectorI6TraderNS_9allocatorIS1_EEE9__end_capB8ue170006Ev, symObjAddr: 0x2BA8, symBinAddr: 0x1000042F4, symSize: 0x28 }
  - { offsetInCU: 0x14EE6, offset: 0x14EE6, size: 0x8, addend: 0x0, symName: __ZNKSt3__117__compressed_pairIP6TraderNS_9allocatorIS1_EEE5firstB8ue170006Ev, symObjAddr: 0x2BD0, symBinAddr: 0x10000431C, symSize: 0x24 }
  - { offsetInCU: 0x14F0C, offset: 0x14F0C, size: 0x8, addend: 0x0, symName: __ZNKSt3__122__compressed_pair_elemIP6TraderLi0ELb0EE5__getB8ue170006Ev, symObjAddr: 0x2BF4, symBinAddr: 0x100004340, symSize: 0x14 }
  - { offsetInCU: 0x14F32, offset: 0x14F32, size: 0x8, addend: 0x0, symName: __ZNSt3__16vectorI5StockNS_9allocatorIS1_EEED2B8ue170006Ev, symObjAddr: 0x2C08, symBinAddr: 0x100004354, symSize: 0x44 }
  - { offsetInCU: 0x14F5C, offset: 0x14F5C, size: 0x8, addend: 0x0, symName: __ZNSt3__16vectorI5StockNS_9allocatorIS1_EEE16__destroy_vectorC1B8ue170006ERS4_, symObjAddr: 0x2C4C, symBinAddr: 0x100004398, symSize: 0x34 }
  - { offsetInCU: 0x14F95, offset: 0x14F95, size: 0x8, addend: 0x0, symName: __ZNSt3__16vectorI5StockNS_9allocatorIS1_EEE16__destroy_vectorclB8ue170006Ev, symObjAddr: 0x2C80, symBinAddr: 0x1000043CC, symSize: 0x90 }
  - { offsetInCU: 0x14FBB, offset: 0x14FBB, size: 0x8, addend: 0x0, symName: __ZNSt3__16vectorI5StockNS_9allocatorIS1_EEE16__destroy_vectorC2B8ue170006ERS4_, symObjAddr: 0x2D10, symBinAddr: 0x10000445C, symSize: 0x20 }
  - { offsetInCU: 0x14FF4, offset: 0x14FF4, size: 0x8, addend: 0x0, symName: __ZNSt3__16vectorI5StockNS_9allocatorIS1_EEE7__clearB8ue170006Ev, symObjAddr: 0x2D30, symBinAddr: 0x10000447C, symSize: 0x28 }
  - { offsetInCU: 0x1501A, offset: 0x1501A, size: 0x8, addend: 0x0, symName: __ZNKSt3__16vectorI5StockNS_9allocatorIS1_EEE17__annotate_deleteB8ue170006Ev, symObjAddr: 0x2D58, symBinAddr: 0x1000044A4, symSize: 0xD4 }
  - { offsetInCU: 0x15040, offset: 0x15040, size: 0x8, addend: 0x0, symName: __ZNSt3__116allocator_traitsINS_9allocatorI5StockEEE10deallocateB8ue170006ERS3_PS2_m, symObjAddr: 0x2E2C, symBinAddr: 0x100004578, symSize: 0x34 }
  - { offsetInCU: 0x15082, offset: 0x15082, size: 0x8, addend: 0x0, symName: __ZNSt3__16vectorI5StockNS_9allocatorIS1_EEE7__allocB8ue170006Ev, symObjAddr: 0x2E60, symBinAddr: 0x1000045AC, symSize: 0x28 }
  - { offsetInCU: 0x150A8, offset: 0x150A8, size: 0x8, addend: 0x0, symName: __ZNKSt3__16vectorI5StockNS_9allocatorIS1_EEE8capacityB8ue170006Ev, symObjAddr: 0x2E88, symBinAddr: 0x1000045D4, symSize: 0x40 }
  - { offsetInCU: 0x150CE, offset: 0x150CE, size: 0x8, addend: 0x0, symName: __ZNSt3__16vectorI5StockNS_9allocatorIS1_EEE22__base_destruct_at_endB8ue170006EPS1_, symObjAddr: 0x2EC8, symBinAddr: 0x100004614, symSize: 0x8C }
  - { offsetInCU: 0x15112, offset: 0x15112, size: 0x8, addend: 0x0, symName: __ZNSt3__116allocator_traitsINS_9allocatorI5StockEEE7destroyB8ue170006IS2_vEEvRS3_PT_, symObjAddr: 0x2F54, symBinAddr: 0x1000046A0, symSize: 0x2C }
  - { offsetInCU: 0x1514F, offset: 0x1514F, size: 0x8, addend: 0x0, symName: __ZNSt3__19allocatorI5StockE7destroyB8ue170006EPS1_, symObjAddr: 0x2F94, symBinAddr: 0x1000046E0, symSize: 0x28 }
  - { offsetInCU: 0x15183, offset: 0x15183, size: 0x8, addend: 0x0, symName: __ZN5StockD1Ev, symObjAddr: 0x2FBC, symBinAddr: 0x100004708, symSize: 0x2C }
  - { offsetInCU: 0x151AF, offset: 0x151AF, size: 0x8, addend: 0x0, symName: __ZN5StockD2Ev, symObjAddr: 0x2FE8, symBinAddr: 0x100004734, symSize: 0x68 }
  - { offsetInCU: 0x151DB, offset: 0x151DB, size: 0x8, addend: 0x0, symName: __ZNSt3__16vectorIxNS_9allocatorIxEEED1B8ue170006Ev, symObjAddr: 0x3050, symBinAddr: 0x10000479C, symSize: 0x2C }
  - { offsetInCU: 0x15205, offset: 0x15205, size: 0x8, addend: 0x0, symName: __ZNSt3__114priority_queueIxNS_6vectorIxNS_9allocatorIxEEEENS_4lessIxEEED1Ev, symObjAddr: 0x307C, symBinAddr: 0x1000047C8, symSize: 0x2C }
  - { offsetInCU: 0x15232, offset: 0x15232, size: 0x8, addend: 0x0, symName: __ZNSt3__114priority_queueIxNS_6vectorIxNS_9allocatorIxEEEENS_7greaterIxEEED1Ev, symObjAddr: 0x30A8, symBinAddr: 0x1000047F4, symSize: 0x2C }
  - { offsetInCU: 0x1525F, offset: 0x1525F, size: 0x8, addend: 0x0, symName: __ZNSt3__114priority_queueI5OrderNS_6vectorIS1_NS_9allocatorIS1_EEEE14seller_functorED1Ev, symObjAddr: 0x30D4, symBinAddr: 0x100004820, symSize: 0x2C }
  - { offsetInCU: 0x1528C, offset: 0x1528C, size: 0x8, addend: 0x0, symName: __ZNSt3__114priority_queueI5OrderNS_6vectorIS1_NS_9allocatorIS1_EEEE13buyer_functorED1Ev, symObjAddr: 0x3100, symBinAddr: 0x10000484C, symSize: 0x2C }
  - { offsetInCU: 0x152B9, offset: 0x152B9, size: 0x8, addend: 0x0, symName: __ZNSt3__16vectorIxNS_9allocatorIxEEED2B8ue170006Ev, symObjAddr: 0x312C, symBinAddr: 0x100004878, symSize: 0x44 }
  - { offsetInCU: 0x152E3, offset: 0x152E3, size: 0x8, addend: 0x0, symName: __ZNSt3__16vectorIxNS_9allocatorIxEEE16__destroy_vectorC1B8ue170006ERS3_, symObjAddr: 0x3170, symBinAddr: 0x1000048BC, symSize: 0x34 }
  - { offsetInCU: 0x1531C, offset: 0x1531C, size: 0x8, addend: 0x0, symName: __ZNSt3__16vectorIxNS_9allocatorIxEEE16__destroy_vectorclB8ue170006Ev, symObjAddr: 0x31A4, symBinAddr: 0x1000048F0, symSize: 0x90 }
  - { offsetInCU: 0x15342, offset: 0x15342, size: 0x8, addend: 0x0, symName: __ZNSt3__16vectorIxNS_9allocatorIxEEE16__destroy_vectorC2B8ue170006ERS3_, symObjAddr: 0x3234, symBinAddr: 0x100004980, symSize: 0x20 }
  - { offsetInCU: 0x1537B, offset: 0x1537B, size: 0x8, addend: 0x0, symName: __ZNSt3__16vectorIxNS_9allocatorIxEEE7__clearB8ue170006Ev, symObjAddr: 0x3254, symBinAddr: 0x1000049A0, symSize: 0x28 }
  - { offsetInCU: 0x153A1, offset: 0x153A1, size: 0x8, addend: 0x0, symName: __ZNKSt3__16vectorIxNS_9allocatorIxEEE17__annotate_deleteB8ue170006Ev, symObjAddr: 0x327C, symBinAddr: 0x1000049C8, symSize: 0xB8 }
  - { offsetInCU: 0x153C7, offset: 0x153C7, size: 0x8, addend: 0x0, symName: __ZNSt3__116allocator_traitsINS_9allocatorIxEEE10deallocateB8ue170006ERS2_Pxm, symObjAddr: 0x3334, symBinAddr: 0x100004A80, symSize: 0x34 }
  - { offsetInCU: 0x15409, offset: 0x15409, size: 0x8, addend: 0x0, symName: __ZNSt3__16vectorIxNS_9allocatorIxEEE7__allocB8ue170006Ev, symObjAddr: 0x3368, symBinAddr: 0x100004AB4, symSize: 0x28 }
  - { offsetInCU: 0x1542F, offset: 0x1542F, size: 0x8, addend: 0x0, symName: __ZNKSt3__16vectorIxNS_9allocatorIxEEE8capacityB8ue170006Ev, symObjAddr: 0x3390, symBinAddr: 0x100004ADC, symSize: 0x40 }
  - { offsetInCU: 0x15455, offset: 0x15455, size: 0x8, addend: 0x0, symName: __ZNSt3__16vectorIxNS_9allocatorIxEEE22__base_destruct_at_endB8ue170006EPx, symObjAddr: 0x33D0, symBinAddr: 0x100004B1C, symSize: 0x8C }
  - { offsetInCU: 0x15499, offset: 0x15499, size: 0x8, addend: 0x0, symName: __ZNSt3__116allocator_traitsINS_9allocatorIxEEE7destroyB8ue170006IxvEEvRS2_PT_, symObjAddr: 0x345C, symBinAddr: 0x100004BA8, symSize: 0x2C }
  - { offsetInCU: 0x154D6, offset: 0x154D6, size: 0x8, addend: 0x0, symName: __ZNSt3__19allocatorIxE7destroyB8ue170006EPx, symObjAddr: 0x349C, symBinAddr: 0x100004BE8, symSize: 0x14 }
  - { offsetInCU: 0x1550A, offset: 0x1550A, size: 0x8, addend: 0x0, symName: __ZNKSt3__16vectorIxNS_9allocatorIxEEE31__annotate_contiguous_containerB8ue170006EPKvS5_S5_S5_, symObjAddr: 0x34B0, symBinAddr: 0x100004BFC, symSize: 0x20 }
  - { offsetInCU: 0x1555C, offset: 0x1555C, size: 0x8, addend: 0x0, symName: __ZNKSt3__16vectorIxNS_9allocatorIxEEE4dataB8ue170006Ev, symObjAddr: 0x34D0, symBinAddr: 0x100004C1C, symSize: 0x28 }
  - { offsetInCU: 0x15582, offset: 0x15582, size: 0x8, addend: 0x0, symName: __ZNKSt3__16vectorIxNS_9allocatorIxEEE4sizeB8ue170006Ev, symObjAddr: 0x34F8, symBinAddr: 0x100004C44, symSize: 0x28 }
  - { offsetInCU: 0x155A8, offset: 0x155A8, size: 0x8, addend: 0x0, symName: __ZNSt3__19allocatorIxE10deallocateB8ue170006EPxm, symObjAddr: 0x3520, symBinAddr: 0x100004C6C, symSize: 0x40 }
  - { offsetInCU: 0x155EA, offset: 0x155EA, size: 0x8, addend: 0x0, symName: __ZNSt3__117__compressed_pairIPxNS_9allocatorIxEEE6secondB8ue170006Ev, symObjAddr: 0x3560, symBinAddr: 0x100004CAC, symSize: 0x24 }
  - { offsetInCU: 0x15610, offset: 0x15610, size: 0x8, addend: 0x0, symName: __ZNSt3__122__compressed_pair_elemINS_9allocatorIxEELi1ELb1EE5__getB8ue170006Ev, symObjAddr: 0x3584, symBinAddr: 0x100004CD0, symSize: 0x14 }
  - { offsetInCU: 0x15636, offset: 0x15636, size: 0x8, addend: 0x0, symName: __ZNKSt3__16vectorIxNS_9allocatorIxEEE9__end_capB8ue170006Ev, symObjAddr: 0x3598, symBinAddr: 0x100004CE4, symSize: 0x28 }
  - { offsetInCU: 0x1565C, offset: 0x1565C, size: 0x8, addend: 0x0, symName: __ZNKSt3__117__compressed_pairIPxNS_9allocatorIxEEE5firstB8ue170006Ev, symObjAddr: 0x35C0, symBinAddr: 0x100004D0C, symSize: 0x24 }
  - { offsetInCU: 0x15682, offset: 0x15682, size: 0x8, addend: 0x0, symName: __ZNKSt3__122__compressed_pair_elemIPxLi0ELb0EE5__getB8ue170006Ev, symObjAddr: 0x35E4, symBinAddr: 0x100004D30, symSize: 0x14 }
  - { offsetInCU: 0x156A8, offset: 0x156A8, size: 0x8, addend: 0x0, symName: __ZNSt3__114priority_queueIxNS_6vectorIxNS_9allocatorIxEEEENS_4lessIxEEED2Ev, symObjAddr: 0x35F8, symBinAddr: 0x100004D44, symSize: 0x2C }
  - { offsetInCU: 0x156D5, offset: 0x156D5, size: 0x8, addend: 0x0, symName: __ZNSt3__114priority_queueIxNS_6vectorIxNS_9allocatorIxEEEENS_7greaterIxEEED2Ev, symObjAddr: 0x3624, symBinAddr: 0x100004D70, symSize: 0x2C }
  - { offsetInCU: 0x15702, offset: 0x15702, size: 0x8, addend: 0x0, symName: __ZNSt3__114priority_queueI5OrderNS_6vectorIS1_NS_9allocatorIS1_EEEE14seller_functorED2Ev, symObjAddr: 0x3650, symBinAddr: 0x100004D9C, symSize: 0x2C }
  - { offsetInCU: 0x1572F, offset: 0x1572F, size: 0x8, addend: 0x0, symName: __ZNSt3__16vectorI5OrderNS_9allocatorIS1_EEED1B8ue170006Ev, symObjAddr: 0x367C, symBinAddr: 0x100004DC8, symSize: 0x2C }
  - { offsetInCU: 0x15759, offset: 0x15759, size: 0x8, addend: 0x0, symName: __ZNSt3__16vectorI5OrderNS_9allocatorIS1_EEED2B8ue170006Ev, symObjAddr: 0x36A8, symBinAddr: 0x100004DF4, symSize: 0x44 }
  - { offsetInCU: 0x15783, offset: 0x15783, size: 0x8, addend: 0x0, symName: __ZNSt3__16vectorI5OrderNS_9allocatorIS1_EEE16__destroy_vectorC1B8ue170006ERS4_, symObjAddr: 0x36EC, symBinAddr: 0x100004E38, symSize: 0x34 }
  - { offsetInCU: 0x157BC, offset: 0x157BC, size: 0x8, addend: 0x0, symName: __ZNSt3__16vectorI5OrderNS_9allocatorIS1_EEE16__destroy_vectorclB8ue170006Ev, symObjAddr: 0x3720, symBinAddr: 0x100004E6C, symSize: 0x90 }
  - { offsetInCU: 0x157E2, offset: 0x157E2, size: 0x8, addend: 0x0, symName: __ZNSt3__16vectorI5OrderNS_9allocatorIS1_EEE16__destroy_vectorC2B8ue170006ERS4_, symObjAddr: 0x37B0, symBinAddr: 0x100004EFC, symSize: 0x20 }
  - { offsetInCU: 0x1581B, offset: 0x1581B, size: 0x8, addend: 0x0, symName: __ZNSt3__16vectorI5OrderNS_9allocatorIS1_EEE7__clearB8ue170006Ev, symObjAddr: 0x37D0, symBinAddr: 0x100004F1C, symSize: 0x28 }
  - { offsetInCU: 0x15841, offset: 0x15841, size: 0x8, addend: 0x0, symName: __ZNKSt3__16vectorI5OrderNS_9allocatorIS1_EEE17__annotate_deleteB8ue170006Ev, symObjAddr: 0x37F8, symBinAddr: 0x100004F44, symSize: 0xD4 }
  - { offsetInCU: 0x15867, offset: 0x15867, size: 0x8, addend: 0x0, symName: __ZNSt3__116allocator_traitsINS_9allocatorI5OrderEEE10deallocateB8ue170006ERS3_PS2_m, symObjAddr: 0x38CC, symBinAddr: 0x100005018, symSize: 0x34 }
  - { offsetInCU: 0x158A9, offset: 0x158A9, size: 0x8, addend: 0x0, symName: __ZNSt3__16vectorI5OrderNS_9allocatorIS1_EEE7__allocB8ue170006Ev, symObjAddr: 0x3900, symBinAddr: 0x10000504C, symSize: 0x28 }
  - { offsetInCU: 0x158CF, offset: 0x158CF, size: 0x8, addend: 0x0, symName: __ZNKSt3__16vectorI5OrderNS_9allocatorIS1_EEE8capacityB8ue170006Ev, symObjAddr: 0x3928, symBinAddr: 0x100005074, symSize: 0x40 }
  - { offsetInCU: 0x158F5, offset: 0x158F5, size: 0x8, addend: 0x0, symName: __ZNSt3__16vectorI5OrderNS_9allocatorIS1_EEE22__base_destruct_at_endB8ue170006EPS1_, symObjAddr: 0x3968, symBinAddr: 0x1000050B4, symSize: 0x8C }
  - { offsetInCU: 0x15939, offset: 0x15939, size: 0x8, addend: 0x0, symName: __ZNSt3__116allocator_traitsINS_9allocatorI5OrderEEE7destroyB8ue170006IS2_vEEvRS3_PT_, symObjAddr: 0x39F4, symBinAddr: 0x100005140, symSize: 0x2C }
  - { offsetInCU: 0x15976, offset: 0x15976, size: 0x8, addend: 0x0, symName: __ZNSt3__19allocatorI5OrderE7destroyB8ue170006EPS1_, symObjAddr: 0x3A34, symBinAddr: 0x100005180, symSize: 0x14 }
  - { offsetInCU: 0x159AA, offset: 0x159AA, size: 0x8, addend: 0x0, symName: __ZNKSt3__16vectorI5OrderNS_9allocatorIS1_EEE31__annotate_contiguous_containerB8ue170006EPKvS6_S6_S6_, symObjAddr: 0x3A48, symBinAddr: 0x100005194, symSize: 0x20 }
  - { offsetInCU: 0x159FC, offset: 0x159FC, size: 0x8, addend: 0x0, symName: __ZNKSt3__16vectorI5OrderNS_9allocatorIS1_EEE4dataB8ue170006Ev, symObjAddr: 0x3A68, symBinAddr: 0x1000051B4, symSize: 0x28 }
  - { offsetInCU: 0x15A22, offset: 0x15A22, size: 0x8, addend: 0x0, symName: __ZNKSt3__16vectorI5OrderNS_9allocatorIS1_EEE4sizeB8ue170006Ev, symObjAddr: 0x3A90, symBinAddr: 0x1000051DC, symSize: 0x28 }
  - { offsetInCU: 0x15A48, offset: 0x15A48, size: 0x8, addend: 0x0, symName: __ZNSt3__19allocatorI5OrderE10deallocateB8ue170006EPS1_m, symObjAddr: 0x3AB8, symBinAddr: 0x100005204, symSize: 0x44 }
  - { offsetInCU: 0x15A8A, offset: 0x15A8A, size: 0x8, addend: 0x0, symName: __ZNSt3__117__compressed_pairIP5OrderNS_9allocatorIS1_EEE6secondB8ue170006Ev, symObjAddr: 0x3AFC, symBinAddr: 0x100005248, symSize: 0x24 }
  - { offsetInCU: 0x15AB0, offset: 0x15AB0, size: 0x8, addend: 0x0, symName: __ZNSt3__122__compressed_pair_elemINS_9allocatorI5OrderEELi1ELb1EE5__getB8ue170006Ev, symObjAddr: 0x3B20, symBinAddr: 0x10000526C, symSize: 0x14 }
  - { offsetInCU: 0x15AD6, offset: 0x15AD6, size: 0x8, addend: 0x0, symName: __ZNKSt3__16vectorI5OrderNS_9allocatorIS1_EEE9__end_capB8ue170006Ev, symObjAddr: 0x3B34, symBinAddr: 0x100005280, symSize: 0x28 }
  - { offsetInCU: 0x15AFC, offset: 0x15AFC, size: 0x8, addend: 0x0, symName: __ZNKSt3__117__compressed_pairIP5OrderNS_9allocatorIS1_EEE5firstB8ue170006Ev, symObjAddr: 0x3B5C, symBinAddr: 0x1000052A8, symSize: 0x24 }
  - { offsetInCU: 0x15B22, offset: 0x15B22, size: 0x8, addend: 0x0, symName: __ZNKSt3__122__compressed_pair_elemIP5OrderLi0ELb0EE5__getB8ue170006Ev, symObjAddr: 0x3B80, symBinAddr: 0x1000052CC, symSize: 0x14 }
  - { offsetInCU: 0x15B48, offset: 0x15B48, size: 0x8, addend: 0x0, symName: __ZNSt3__114priority_queueI5OrderNS_6vectorIS1_NS_9allocatorIS1_EEEE13buyer_functorED2Ev, symObjAddr: 0x3B94, symBinAddr: 0x1000052E0, symSize: 0x2C }
  - { offsetInCU: 0x15B75, offset: 0x15B75, size: 0x8, addend: 0x0, symName: __ZNKSt3__16vectorI5StockNS_9allocatorIS1_EEE31__annotate_contiguous_containerB8ue170006EPKvS6_S6_S6_, symObjAddr: 0x3BC0, symBinAddr: 0x10000530C, symSize: 0x20 }
  - { offsetInCU: 0x15BC7, offset: 0x15BC7, size: 0x8, addend: 0x0, symName: __ZNKSt3__16vectorI5StockNS_9allocatorIS1_EEE4dataB8ue170006Ev, symObjAddr: 0x3BE0, symBinAddr: 0x10000532C, symSize: 0x28 }
  - { offsetInCU: 0x15BED, offset: 0x15BED, size: 0x8, addend: 0x0, symName: __ZNKSt3__16vectorI5StockNS_9allocatorIS1_EEE4sizeB8ue170006Ev, symObjAddr: 0x3C08, symBinAddr: 0x100005354, symSize: 0x28 }
  - { offsetInCU: 0x15C13, offset: 0x15C13, size: 0x8, addend: 0x0, symName: __ZNSt3__19allocatorI5StockE10deallocateB8ue170006EPS1_m, symObjAddr: 0x3C30, symBinAddr: 0x10000537C, symSize: 0x44 }
  - { offsetInCU: 0x15C55, offset: 0x15C55, size: 0x8, addend: 0x0, symName: __ZNSt3__117__compressed_pairIP5StockNS_9allocatorIS1_EEE6secondB8ue170006Ev, symObjAddr: 0x3C74, symBinAddr: 0x1000053C0, symSize: 0x24 }
  - { offsetInCU: 0x15C7B, offset: 0x15C7B, size: 0x8, addend: 0x0, symName: __ZNSt3__122__compressed_pair_elemINS_9allocatorI5StockEELi1ELb1EE5__getB8ue170006Ev, symObjAddr: 0x3C98, symBinAddr: 0x1000053E4, symSize: 0x14 }
  - { offsetInCU: 0x15CA1, offset: 0x15CA1, size: 0x8, addend: 0x0, symName: __ZNKSt3__16vectorI5StockNS_9allocatorIS1_EEE9__end_capB8ue170006Ev, symObjAddr: 0x3CAC, symBinAddr: 0x1000053F8, symSize: 0x28 }
  - { offsetInCU: 0x15CC7, offset: 0x15CC7, size: 0x8, addend: 0x0, symName: __ZNKSt3__117__compressed_pairIP5StockNS_9allocatorIS1_EEE5firstB8ue170006Ev, symObjAddr: 0x3CD4, symBinAddr: 0x100005420, symSize: 0x24 }
  - { offsetInCU: 0x15CED, offset: 0x15CED, size: 0x8, addend: 0x0, symName: __ZNKSt3__122__compressed_pair_elemIP5StockLi0ELb0EE5__getB8ue170006Ev, symObjAddr: 0x3CF8, symBinAddr: 0x100005444, symSize: 0x14 }
  - { offsetInCU: 0x15D13, offset: 0x15D13, size: 0x8, addend: 0x0, symName: __ZN8P2random4PrngC1Ey, symObjAddr: 0x3D0C, symBinAddr: 0x100005458, symSize: 0x34 }
  - { offsetInCU: 0x15D4B, offset: 0x15D4B, size: 0x8, addend: 0x0, symName: __ZN8P2random4PrngclEv, symObjAddr: 0x3D40, symBinAddr: 0x10000548C, symSize: 0x8C }
  - { offsetInCU: 0x15D9B, offset: 0x15D9B, size: 0x8, addend: 0x0, symName: __ZN8P2random4PrngC2Ey, symObjAddr: 0x3DCC, symBinAddr: 0x100005518, symSize: 0x5C }
  - { offsetInCU: 0x15DD3, offset: 0x15DD3, size: 0x8, addend: 0x0, symName: __ZN8P2random4Prng6reseedEy, symObjAddr: 0x3E28, symBinAddr: 0x100005574, symSize: 0x3C }
  - { offsetInCU: 0x15E07, offset: 0x15E07, size: 0x8, addend: 0x0, symName: __ZN8P2random4Prng6reseedEyy, symObjAddr: 0x3E64, symBinAddr: 0x1000055B0, symSize: 0x5C }
  - { offsetInCU: 0x15E49, offset: 0x15E49, size: 0x8, addend: 0x0, symName: __ZNSt3__118basic_stringstreamIcNS_11char_traitsIcEENS_9allocatorIcEEED2Ev, symObjAddr: 0x3EC0, symBinAddr: 0x10000560C, symSize: 0x6C }
  - { offsetInCU: 0x15E83, offset: 0x15E83, size: 0x8, addend: 0x0, symName: __ZThn16_NSt3__118basic_stringstreamIcNS_11char_traitsIcEENS_9allocatorIcEEED1Ev, symObjAddr: 0x3F2C, symBinAddr: 0x100005678, symSize: 0x1C }
  - { offsetInCU: 0x15E9A, offset: 0x15E9A, size: 0x8, addend: 0x0, symName: __ZTv0_n24_NSt3__118basic_stringstreamIcNS_11char_traitsIcEENS_9allocatorIcEEED1Ev, symObjAddr: 0x3F48, symBinAddr: 0x100005694, symSize: 0x28 }
  - { offsetInCU: 0x15EB6, offset: 0x15EB6, size: 0x8, addend: 0x0, symName: __ZNSt3__115basic_stringbufIcNS_11char_traitsIcEENS_9allocatorIcEEED1Ev, symObjAddr: 0x3F70, symBinAddr: 0x1000056BC, symSize: 0x2C }
  - { offsetInCU: 0x15EE3, offset: 0x15EE3, size: 0x8, addend: 0x0, symName: __ZNSt3__115basic_stringbufIcNS_11char_traitsIcEENS_9allocatorIcEEED2Ev, symObjAddr: 0x3F9C, symBinAddr: 0x1000056E8, symSize: 0x48 }
  - { offsetInCU: 0x15F10, offset: 0x15F10, size: 0x8, addend: 0x0, symName: __ZN5OrderC2Exxbxxx, symObjAddr: 0x3FE4, symBinAddr: 0x100005730, symSize: 0x68 }
  - { offsetInCU: 0x15F8E, offset: 0x15F8E, size: 0x8, addend: 0x0, symName: __ZNSt3__111char_traitsIcE6lengthB8ue170006EPKc, symObjAddr: 0x4238, symBinAddr: 0x100005984, symSize: 0x34 }
  - { offsetInCU: 0x15FCF, offset: 0x15FCF, size: 0x8, addend: 0x0, symName: __ZNKSt3__113basic_ostreamIcNS_11char_traitsIcEEE6sentrycvbB8ue170006Ev, symObjAddr: 0x426C, symBinAddr: 0x1000059B8, symSize: 0x1C }
  - { offsetInCU: 0x15FF5, offset: 0x15FF5, size: 0x8, addend: 0x0, symName: __ZNSt3__119ostreambuf_iteratorIcNS_11char_traitsIcEEEC1B8ue170006ERNS_13basic_ostreamIcS2_EE, symObjAddr: 0x44C8, symBinAddr: 0x100005C14, symSize: 0x34 }
  - { offsetInCU: 0x1602D, offset: 0x1602D, size: 0x8, addend: 0x0, symName: __ZNKSt3__18ios_base5flagsB8ue170006Ev, symObjAddr: 0x44FC, symBinAddr: 0x100005C48, symSize: 0x18 }
  - { offsetInCU: 0x16055, offset: 0x16055, size: 0x8, addend: 0x0, symName: __ZNKSt3__19basic_iosIcNS_11char_traitsIcEEE4fillB8ue170006Ev, symObjAddr: 0x4514, symBinAddr: 0x100005C60, symSize: 0x64 }
  - { offsetInCU: 0x1607D, offset: 0x1607D, size: 0x8, addend: 0x0, symName: __ZNKSt3__119ostreambuf_iteratorIcNS_11char_traitsIcEEE6failedB8ue170006Ev, symObjAddr: 0x4578, symBinAddr: 0x100005CC4, symSize: 0x24 }
  - { offsetInCU: 0x160A3, offset: 0x160A3, size: 0x8, addend: 0x0, symName: __ZNSt3__19basic_iosIcNS_11char_traitsIcEEE8setstateB8ue170006Ej, symObjAddr: 0x459C, symBinAddr: 0x100005CE8, symSize: 0x2C }
  - { offsetInCU: 0x160D8, offset: 0x160D8, size: 0x8, addend: 0x0, symName: __ZNKSt3__18ios_base5widthB8ue170006Ev, symObjAddr: 0x45C8, symBinAddr: 0x100005D14, symSize: 0x18 }
  - { offsetInCU: 0x16100, offset: 0x16100, size: 0x8, addend: 0x0, symName: __ZNSt3__115basic_streambufIcNS_11char_traitsIcEEE5sputnB8ue170006EPKcl, symObjAddr: 0x45E0, symBinAddr: 0x100005D2C, symSize: 0x3C }
  - { offsetInCU: 0x16142, offset: 0x16142, size: 0x8, addend: 0x0, symName: __ZNSt3__112basic_stringIcNS_11char_traitsIcEENS_9allocatorIcEEEC1B8ue170006Emc, symObjAddr: 0x461C, symBinAddr: 0x100005D68, symSize: 0x3C }
  - { offsetInCU: 0x1618A, offset: 0x1618A, size: 0x8, addend: 0x0, symName: __ZNSt3__112basic_stringIcNS_11char_traitsIcEENS_9allocatorIcEEE4dataB8ue170006Ev, symObjAddr: 0x4658, symBinAddr: 0x100005DA4, symSize: 0x28 }
  - { offsetInCU: 0x161B0, offset: 0x161B0, size: 0x8, addend: 0x0, symName: __ZNSt3__18ios_base5widthB8ue170006El, symObjAddr: 0x4680, symBinAddr: 0x100005DCC, symSize: 0x2C }
  - { offsetInCU: 0x161F6, offset: 0x161F6, size: 0x8, addend: 0x0, symName: __ZNSt3__112basic_stringIcNS_11char_traitsIcEENS_9allocatorIcEEEC2B8ue170006Emc, symObjAddr: 0x46AC, symBinAddr: 0x100005DF8, symSize: 0x4C }
  - { offsetInCU: 0x1623E, offset: 0x1623E, size: 0x8, addend: 0x0, symName: __ZNSt3__117__compressed_pairINS_12basic_stringIcNS_11char_traitsIcEENS_9allocatorIcEEE5__repES5_EC1B8ue170006INS_18__default_init_tagESA_EEOT_OT0_, symObjAddr: 0x46F8, symBinAddr: 0x100005E44, symSize: 0x3C }
  - { offsetInCU: 0x16296, offset: 0x16296, size: 0x8, addend: 0x0, symName: __ZNSt3__117__compressed_pairINS_12basic_stringIcNS_11char_traitsIcEENS_9allocatorIcEEE5__repES5_EC2B8ue170006INS_18__default_init_tagESA_EEOT_OT0_, symObjAddr: 0x4734, symBinAddr: 0x100005E80, symSize: 0x3C }
  - { offsetInCU: 0x162EE, offset: 0x162EE, size: 0x8, addend: 0x0, symName: __ZNSt3__122__compressed_pair_elemINS_12basic_stringIcNS_11char_traitsIcEENS_9allocatorIcEEE5__repELi0ELb0EEC2B8ue170006ENS_18__default_init_tagE, symObjAddr: 0x4770, symBinAddr: 0x100005EBC, symSize: 0x14 }
  - { offsetInCU: 0x16323, offset: 0x16323, size: 0x8, addend: 0x0, symName: __ZNSt3__122__compressed_pair_elemINS_9allocatorIcEELi1ELb1EEC2B8ue170006ENS_18__default_init_tagE, symObjAddr: 0x4784, symBinAddr: 0x100005ED0, symSize: 0x2C }
  - { offsetInCU: 0x16358, offset: 0x16358, size: 0x8, addend: 0x0, symName: __ZNSt3__19allocatorIcEC2B8ue170006Ev, symObjAddr: 0x47B0, symBinAddr: 0x100005EFC, symSize: 0x2C }
  - { offsetInCU: 0x16382, offset: 0x16382, size: 0x8, addend: 0x0, symName: __ZNSt3__116__non_trivial_ifILb1ENS_9allocatorIcEEEC2B8ue170006Ev, symObjAddr: 0x47DC, symBinAddr: 0x100005F28, symSize: 0x14 }
  - { offsetInCU: 0x163AC, offset: 0x163AC, size: 0x8, addend: 0x0, symName: __ZNSt3__112basic_stringIcNS_11char_traitsIcEENS_9allocatorIcEEE13__get_pointerB8ue170006Ev, symObjAddr: 0x4804, symBinAddr: 0x100005F50, symSize: 0x54 }
  - { offsetInCU: 0x163D2, offset: 0x163D2, size: 0x8, addend: 0x0, symName: __ZNKSt3__112basic_stringIcNS_11char_traitsIcEENS_9allocatorIcEEE9__is_longB8ue170006Ev, symObjAddr: 0x4858, symBinAddr: 0x100005FA4, symSize: 0x38 }
  - { offsetInCU: 0x163F8, offset: 0x163F8, size: 0x8, addend: 0x0, symName: __ZNSt3__112basic_stringIcNS_11char_traitsIcEENS_9allocatorIcEEE18__get_long_pointerB8ue170006Ev, symObjAddr: 0x4890, symBinAddr: 0x100005FDC, symSize: 0x28 }
  - { offsetInCU: 0x1641E, offset: 0x1641E, size: 0x8, addend: 0x0, symName: __ZNSt3__112basic_stringIcNS_11char_traitsIcEENS_9allocatorIcEEE19__get_short_pointerB8ue170006Ev, symObjAddr: 0x48B8, symBinAddr: 0x100006004, symSize: 0x28 }
  - { offsetInCU: 0x16444, offset: 0x16444, size: 0x8, addend: 0x0, symName: __ZNKSt3__117__compressed_pairINS_12basic_stringIcNS_11char_traitsIcEENS_9allocatorIcEEE5__repES5_E5firstB8ue170006Ev, symObjAddr: 0x48E0, symBinAddr: 0x10000602C, symSize: 0x24 }
  - { offsetInCU: 0x1646A, offset: 0x1646A, size: 0x8, addend: 0x0, symName: __ZNKSt3__122__compressed_pair_elemINS_12basic_stringIcNS_11char_traitsIcEENS_9allocatorIcEEE5__repELi0ELb0EE5__getB8ue170006Ev, symObjAddr: 0x4904, symBinAddr: 0x100006050, symSize: 0x14 }
  - { offsetInCU: 0x16490, offset: 0x16490, size: 0x8, addend: 0x0, symName: __ZNSt3__117__compressed_pairINS_12basic_stringIcNS_11char_traitsIcEENS_9allocatorIcEEE5__repES5_E5firstB8ue170006Ev, symObjAddr: 0x4918, symBinAddr: 0x100006064, symSize: 0x24 }
  - { offsetInCU: 0x164B6, offset: 0x164B6, size: 0x8, addend: 0x0, symName: __ZNSt3__122__compressed_pair_elemINS_12basic_stringIcNS_11char_traitsIcEENS_9allocatorIcEEE5__repELi0ELb0EE5__getB8ue170006Ev, symObjAddr: 0x493C, symBinAddr: 0x100006088, symSize: 0x14 }
  - { offsetInCU: 0x164DC, offset: 0x164DC, size: 0x8, addend: 0x0, symName: __ZNSt3__114pointer_traitsIPcE10pointer_toB8ue170006ERc, symObjAddr: 0x4950, symBinAddr: 0x10000609C, symSize: 0x14 }
  - { offsetInCU: 0x164FF, offset: 0x164FF, size: 0x8, addend: 0x0, symName: __ZNSt3__119ostreambuf_iteratorIcNS_11char_traitsIcEEEC2B8ue170006ERNS_13basic_ostreamIcS2_EE, symObjAddr: 0x4964, symBinAddr: 0x1000060B0, symSize: 0x54 }
  - { offsetInCU: 0x16537, offset: 0x16537, size: 0x8, addend: 0x0, symName: __ZNKSt3__19basic_iosIcNS_11char_traitsIcEEE5rdbufB8ue170006Ev, symObjAddr: 0x49B8, symBinAddr: 0x100006104, symSize: 0x24 }
  - { offsetInCU: 0x1655F, offset: 0x1655F, size: 0x8, addend: 0x0, symName: __ZNKSt3__18ios_base5rdbufB8ue170006Ev, symObjAddr: 0x49DC, symBinAddr: 0x100006128, symSize: 0x18 }
  - { offsetInCU: 0x16585, offset: 0x16585, size: 0x8, addend: 0x0, symName: __ZNSt3__111char_traitsIcE11eq_int_typeB8ue170006Eii, symObjAddr: 0x49F4, symBinAddr: 0x100006140, symSize: 0x28 }
  - { offsetInCU: 0x165B8, offset: 0x165B8, size: 0x8, addend: 0x0, symName: __ZNSt3__111char_traitsIcE3eofB8ue170006Ev, symObjAddr: 0x4A1C, symBinAddr: 0x100006168, symSize: 0x8 }
  - { offsetInCU: 0x165CC, offset: 0x165CC, size: 0x8, addend: 0x0, symName: __ZNKSt3__19basic_iosIcNS_11char_traitsIcEEE5widenB8ue170006Ec, symObjAddr: 0x4A24, symBinAddr: 0x100006170, symSize: 0x84 }
  - { offsetInCU: 0x16630, offset: 0x16630, size: 0x8, addend: 0x0, symName: __ZNKSt3__15ctypeIcE5widenB8ue170006Ec, symObjAddr: 0x4AD4, symBinAddr: 0x100006220, symSize: 0x38 }
  - { offsetInCU: 0x16665, offset: 0x16665, size: 0x8, addend: 0x0, symName: __ZNSt3__18ios_base8setstateB8ue170006Ej, symObjAddr: 0x4B0C, symBinAddr: 0x100006258, symSize: 0x34 }
  - { offsetInCU: 0x1669C, offset: 0x1669C, size: 0x8, addend: 0x0, symName: __ZNSt3__112basic_stringIcNS_11char_traitsIcEENS_9allocatorIcEEEC2B8ue170006Ev, symObjAddr: 0x4B64, symBinAddr: 0x1000062B0, symSize: 0x48 }
  - { offsetInCU: 0x166C6, offset: 0x166C6, size: 0x8, addend: 0x0, symName: __ZNSt3__112basic_stringIcNS_11char_traitsIcEENS_9allocatorIcEEE14__default_initB8ue170006Ev, symObjAddr: 0x4BAC, symBinAddr: 0x1000062F8, symSize: 0x40 }
  - { offsetInCU: 0x1670A, offset: 0x1670A, size: 0x8, addend: 0x0, symName: __ZNKSt3__113basic_istreamIcNS_11char_traitsIcEEE6sentrycvbB8ue170006Ev, symObjAddr: 0x4E24, symBinAddr: 0x100006570, symSize: 0x1C }
  - { offsetInCU: 0x16730, offset: 0x16730, size: 0x8, addend: 0x0, symName: __ZNSt3__112basic_stringIcNS_11char_traitsIcEENS_9allocatorIcEEE5clearB8ue170006Ev, symObjAddr: 0x4E40, symBinAddr: 0x10000658C, symSize: 0x78 }
  - { offsetInCU: 0x16758, offset: 0x16758, size: 0x8, addend: 0x0, symName: __ZNSt3__115basic_streambufIcNS_11char_traitsIcEEE6sbumpcB8ue170006Ev, symObjAddr: 0x4EB8, symBinAddr: 0x100006604, symSize: 0x78 }
  - { offsetInCU: 0x1677E, offset: 0x1677E, size: 0x8, addend: 0x0, symName: __ZNSt3__111char_traitsIcE12to_char_typeB8ue170006Ei, symObjAddr: 0x4F30, symBinAddr: 0x10000667C, symSize: 0x18 }
  - { offsetInCU: 0x167A1, offset: 0x167A1, size: 0x8, addend: 0x0, symName: __ZNSt3__111char_traitsIcE2eqEcc, symObjAddr: 0x4F48, symBinAddr: 0x100006694, symSize: 0x28 }
  - { offsetInCU: 0x167D2, offset: 0x167D2, size: 0x8, addend: 0x0, symName: __ZNKSt3__112basic_stringIcNS_11char_traitsIcEENS_9allocatorIcEEE4sizeB8ue170006Ev, symObjAddr: 0x4F70, symBinAddr: 0x1000066BC, symSize: 0x54 }
  - { offsetInCU: 0x167F8, offset: 0x167F8, size: 0x8, addend: 0x0, symName: __ZNKSt3__112basic_stringIcNS_11char_traitsIcEENS_9allocatorIcEEE8max_sizeB8ue170006Ev, symObjAddr: 0x4FC4, symBinAddr: 0x100006710, symSize: 0xAC }
  - { offsetInCU: 0x1684A, offset: 0x1684A, size: 0x8, addend: 0x0, symName: __ZNSt3__18ios_base18__setstate_nothrowB8ue170006Ej, symObjAddr: 0x5070, symBinAddr: 0x1000067BC, symSize: 0x64 }
  - { offsetInCU: 0x1687F, offset: 0x1687F, size: 0x8, addend: 0x0, symName: __ZNKSt3__19basic_iosIcNS_11char_traitsIcEEE10exceptionsB8ue170006Ev, symObjAddr: 0x50D4, symBinAddr: 0x100006820, symSize: 0x24 }
  - { offsetInCU: 0x168A5, offset: 0x168A5, size: 0x8, addend: 0x0, symName: __ZNSt3__111char_traitsIcE6assignB8ue170006ERcRKc, symObjAddr: 0x50F8, symBinAddr: 0x100006844, symSize: 0x24 }
  - { offsetInCU: 0x168D6, offset: 0x168D6, size: 0x8, addend: 0x0, symName: __ZNSt3__112basic_stringIcNS_11char_traitsIcEENS_9allocatorIcEEE15__set_long_sizeB8ue170006Em, symObjAddr: 0x511C, symBinAddr: 0x100006868, symSize: 0x38 }
  - { offsetInCU: 0x1690B, offset: 0x1690B, size: 0x8, addend: 0x0, symName: __ZNSt3__112basic_stringIcNS_11char_traitsIcEENS_9allocatorIcEEE16__set_short_sizeB8ue170006Em, symObjAddr: 0x5154, symBinAddr: 0x1000068A0, symSize: 0x78 }
  - { offsetInCU: 0x16940, offset: 0x16940, size: 0x8, addend: 0x0, symName: __ZNSt3__111char_traitsIcE11to_int_typeB8ue170006Ec, symObjAddr: 0x51CC, symBinAddr: 0x100006918, symSize: 0x14 }
  - { offsetInCU: 0x16964, offset: 0x16964, size: 0x8, addend: 0x0, symName: __ZNKSt3__112basic_stringIcNS_11char_traitsIcEENS_9allocatorIcEEE15__get_long_sizeB8ue170006Ev, symObjAddr: 0x51E0, symBinAddr: 0x10000692C, symSize: 0x28 }
  - { offsetInCU: 0x1698A, offset: 0x1698A, size: 0x8, addend: 0x0, symName: __ZNKSt3__112basic_stringIcNS_11char_traitsIcEENS_9allocatorIcEEE16__get_short_sizeB8ue170006Ev, symObjAddr: 0x5208, symBinAddr: 0x100006954, symSize: 0x34 }
  - { offsetInCU: 0x169BA, offset: 0x169BA, size: 0x8, addend: 0x0, symName: __ZNSt3__116allocator_traitsINS_9allocatorIcEEE8max_sizeB8ue170006IS2_vEEmRKS2_, symObjAddr: 0x523C, symBinAddr: 0x100006988, symSize: 0x24 }
  - { offsetInCU: 0x169E8, offset: 0x169E8, size: 0x8, addend: 0x0, symName: __ZNKSt3__112basic_stringIcNS_11char_traitsIcEENS_9allocatorIcEEE7__allocB8ue170006Ev, symObjAddr: 0x5260, symBinAddr: 0x1000069AC, symSize: 0x24 }
  - { offsetInCU: 0x16A0E, offset: 0x16A0E, size: 0x8, addend: 0x0, symName: __ZNSt3__114numeric_limitsImE3maxB8ue170006Ev, symObjAddr: 0x5284, symBinAddr: 0x1000069D0, symSize: 0x14 }
  - { offsetInCU: 0x16A22, offset: 0x16A22, size: 0x8, addend: 0x0, symName: __ZNKSt3__19allocatorIcE8max_sizeB8ue170006Ev, symObjAddr: 0x5298, symBinAddr: 0x1000069E4, symSize: 0x14 }
  - { offsetInCU: 0x16A48, offset: 0x16A48, size: 0x8, addend: 0x0, symName: __ZNKSt3__117__compressed_pairINS_12basic_stringIcNS_11char_traitsIcEENS_9allocatorIcEEE5__repES5_E6secondB8ue170006Ev, symObjAddr: 0x52AC, symBinAddr: 0x1000069F8, symSize: 0x24 }
  - { offsetInCU: 0x16A6E, offset: 0x16A6E, size: 0x8, addend: 0x0, symName: __ZNKSt3__122__compressed_pair_elemINS_9allocatorIcEELi1ELb1EE5__getB8ue170006Ev, symObjAddr: 0x52D0, symBinAddr: 0x100006A1C, symSize: 0x14 }
  - { offsetInCU: 0x16A94, offset: 0x16A94, size: 0x8, addend: 0x0, symName: __ZNSt3__123__libcpp_numeric_limitsImLb1EE3maxB8ue170006Ev, symObjAddr: 0x52E4, symBinAddr: 0x100006A30, symSize: 0x8 }
  - { offsetInCU: 0x16AA8, offset: 0x16AA8, size: 0x8, addend: 0x0, symName: __ZNKSt3__18ios_base10exceptionsB8ue170006Ev, symObjAddr: 0x52EC, symBinAddr: 0x100006A38, symSize: 0x18 }
  - { offsetInCU: 0x16AD0, offset: 0x16AD0, size: 0x8, addend: 0x0, symName: __ZNSt3__114numeric_limitsIlE3maxB8ue170006Ev, symObjAddr: 0x5304, symBinAddr: 0x100006A50, symSize: 0x14 }
  - { offsetInCU: 0x16AE4, offset: 0x16AE4, size: 0x8, addend: 0x0, symName: __ZNSt3__115basic_streambufIcNS_11char_traitsIcEEE5sgetcB8ue170006Ev, symObjAddr: 0x5318, symBinAddr: 0x100006A64, symSize: 0x70 }
  - { offsetInCU: 0x16B0A, offset: 0x16B0A, size: 0x8, addend: 0x0, symName: __ZNKSt3__15ctypeIcE2isB8ue170006Ejc, symObjAddr: 0x5388, symBinAddr: 0x100006AD4, symSize: 0x7C }
  - { offsetInCU: 0x16B4E, offset: 0x16B4E, size: 0x8, addend: 0x0, symName: __ZNSt3__123__libcpp_numeric_limitsIlLb1EE3maxB8ue170006Ev, symObjAddr: 0x5404, symBinAddr: 0x100006B50, symSize: 0x8 }
  - { offsetInCU: 0x16B61, offset: 0x16B61, size: 0x8, addend: 0x0, symName: __Z7isasciii, symObjAddr: 0x540C, symBinAddr: 0x100006B58, symSize: 0x24 }
  - { offsetInCU: 0x16B8E, offset: 0x16B8E, size: 0x8, addend: 0x0, symName: __ZNSt3__16vectorI6TraderNS_9allocatorIS1_EEE8__appendEm, symObjAddr: 0x5430, symBinAddr: 0x100006B7C, symSize: 0x108 }
  - { offsetInCU: 0x16BE9, offset: 0x16BE9, size: 0x8, addend: 0x0, symName: __ZNSt3__16vectorI6TraderNS_9allocatorIS1_EEE17__destruct_at_endB8ue170006EPS1_, symObjAddr: 0x5538, symBinAddr: 0x100006C84, symSize: 0x4C }
  - { offsetInCU: 0x16C2D, offset: 0x16C2D, size: 0x8, addend: 0x0, symName: __ZNSt3__16vectorI6TraderNS_9allocatorIS1_EEE9__end_capB8ue170006Ev, symObjAddr: 0x5584, symBinAddr: 0x100006CD0, symSize: 0x28 }
  - { offsetInCU: 0x16C53, offset: 0x16C53, size: 0x8, addend: 0x0, symName: __ZNSt3__16vectorI6TraderNS_9allocatorIS1_EEE18__construct_at_endEm, symObjAddr: 0x55AC, symBinAddr: 0x100006CF8, symSize: 0xC8 }
  - { offsetInCU: 0x16CC5, offset: 0x16CC5, size: 0x8, addend: 0x0, symName: __ZNKSt3__16vectorI6TraderNS_9allocatorIS1_EEE11__recommendB8ue170006Em, symObjAddr: 0x5674, symBinAddr: 0x100006DC0, symSize: 0xB4 }
  - { offsetInCU: 0x16D1A, offset: 0x16D1A, size: 0x8, addend: 0x0, symName: __ZNSt3__114__split_bufferI6TraderRNS_9allocatorIS1_EEEC1EmmS4_, symObjAddr: 0x5728, symBinAddr: 0x100006E74, symSize: 0x44 }
  - { offsetInCU: 0x16D70, offset: 0x16D70, size: 0x8, addend: 0x0, symName: __ZNSt3__114__split_bufferI6TraderRNS_9allocatorIS1_EEE18__construct_at_endEm, symObjAddr: 0x576C, symBinAddr: 0x100006EB8, symSize: 0xB4 }
  - { offsetInCU: 0x16DB5, offset: 0x16DB5, size: 0x8, addend: 0x0, symName: __ZNSt3__114__split_bufferI6TraderRNS_9allocatorIS1_EEED1Ev, symObjAddr: 0x5930, symBinAddr: 0x10000707C, symSize: 0x2C }
  - { offsetInCU: 0x16DE1, offset: 0x16DE1, size: 0x8, addend: 0x0, symName: __ZNSt3__117__compressed_pairIP6TraderNS_9allocatorIS1_EEE5firstB8ue170006Ev, symObjAddr: 0x595C, symBinAddr: 0x1000070A8, symSize: 0x24 }
  - { offsetInCU: 0x16E07, offset: 0x16E07, size: 0x8, addend: 0x0, symName: __ZNSt3__122__compressed_pair_elemIP6TraderLi0ELb0EE5__getB8ue170006Ev, symObjAddr: 0x5980, symBinAddr: 0x1000070CC, symSize: 0x14 }
  - { offsetInCU: 0x16E46, offset: 0x16E46, size: 0x8, addend: 0x0, symName: __ZNSt3__16vectorI6TraderNS_9allocatorIS1_EEE21_ConstructTransactionC1B8ue170006ERS4_m, symObjAddr: 0x5994, symBinAddr: 0x1000070E0, symSize: 0x3C }
  - { offsetInCU: 0x16E8E, offset: 0x16E8E, size: 0x8, addend: 0x0, symName: __ZNSt3__116allocator_traitsINS_9allocatorI6TraderEEE9constructB8ue170006IS2_JEvEEvRS3_PT_DpOT0_, symObjAddr: 0x59D0, symBinAddr: 0x10000711C, symSize: 0x2C }
  - { offsetInCU: 0x16ED0, offset: 0x16ED0, size: 0x8, addend: 0x0, symName: __ZNSt3__16vectorI6TraderNS_9allocatorIS1_EEE21_ConstructTransactionD1B8ue170006Ev, symObjAddr: 0x59FC, symBinAddr: 0x100007148, symSize: 0x2C }
  - { offsetInCU: 0x16EFA, offset: 0x16EFA, size: 0x8, addend: 0x0, symName: __ZNSt3__16vectorI6TraderNS_9allocatorIS1_EEE21_ConstructTransactionC2B8ue170006ERS4_m, symObjAddr: 0x5A28, symBinAddr: 0x100007174, symSize: 0x4C }
  - { offsetInCU: 0x16F42, offset: 0x16F42, size: 0x8, addend: 0x0, symName: __ZNSt3__19allocatorI6TraderE9constructB8ue170006IS1_JEEEvPT_DpOT0_, symObjAddr: 0x5A74, symBinAddr: 0x1000071C0, symSize: 0x34 }
  - { offsetInCU: 0x16F89, offset: 0x16F89, size: 0x8, addend: 0x0, symName: __ZN6TraderC1Ev, symObjAddr: 0x5AA8, symBinAddr: 0x1000071F4, symSize: 0x2C }
  - { offsetInCU: 0x16FB5, offset: 0x16FB5, size: 0x8, addend: 0x0, symName: __ZN6TraderC2Ev, symObjAddr: 0x5AD4, symBinAddr: 0x100007220, symSize: 0x20 }
  - { offsetInCU: 0x16FE1, offset: 0x16FE1, size: 0x8, addend: 0x0, symName: __ZNSt3__16vectorI6TraderNS_9allocatorIS1_EEE21_ConstructTransactionD2B8ue170006Ev, symObjAddr: 0x5AF4, symBinAddr: 0x100007240, symSize: 0x20 }
  - { offsetInCU: 0x1700B, offset: 0x1700B, size: 0x8, addend: 0x0, symName: __ZNKSt3__16vectorI6TraderNS_9allocatorIS1_EEE8max_sizeEv, symObjAddr: 0x5B14, symBinAddr: 0x100007260, symSize: 0x60 }
  - { offsetInCU: 0x17033, offset: 0x17033, size: 0x8, addend: 0x0, symName: __ZNKSt3__16vectorI6TraderNS_9allocatorIS1_EEE20__throw_length_errorB8ue170006Ev, symObjAddr: 0x5B74, symBinAddr: 0x1000072C0, symSize: 0x1C }
  - { offsetInCU: 0x17063, offset: 0x17063, size: 0x8, addend: 0x0, symName: __ZNSt3__116allocator_traitsINS_9allocatorI6TraderEEE8max_sizeB8ue170006IS3_vEEmRKS3_, symObjAddr: 0x5BE8, symBinAddr: 0x100007334, symSize: 0x24 }
  - { offsetInCU: 0x17091, offset: 0x17091, size: 0x8, addend: 0x0, symName: __ZNKSt3__16vectorI6TraderNS_9allocatorIS1_EEE7__allocB8ue170006Ev, symObjAddr: 0x5C0C, symBinAddr: 0x100007358, symSize: 0x28 }
  - { offsetInCU: 0x170CB, offset: 0x170CB, size: 0x8, addend: 0x0, symName: __ZNKSt3__16__lessIvvEclB8ue170006ImmEEbRKT_RKT0_, symObjAddr: 0x5C88, symBinAddr: 0x1000073D4, symSize: 0x34 }
  - { offsetInCU: 0x1711F, offset: 0x1711F, size: 0x8, addend: 0x0, symName: __ZNKSt3__19allocatorI6TraderE8max_sizeB8ue170006Ev, symObjAddr: 0x5CBC, symBinAddr: 0x100007408, symSize: 0x18 }
  - { offsetInCU: 0x17145, offset: 0x17145, size: 0x8, addend: 0x0, symName: __ZNKSt3__117__compressed_pairIP6TraderNS_9allocatorIS1_EEE6secondB8ue170006Ev, symObjAddr: 0x5CD4, symBinAddr: 0x100007420, symSize: 0x24 }
  - { offsetInCU: 0x1716B, offset: 0x1716B, size: 0x8, addend: 0x0, symName: __ZNKSt3__122__compressed_pair_elemINS_9allocatorI6TraderEELi1ELb1EE5__getB8ue170006Ev, symObjAddr: 0x5CF8, symBinAddr: 0x100007444, symSize: 0x14 }
  - { offsetInCU: 0x17191, offset: 0x17191, size: 0x8, addend: 0x0, symName: __ZNSt12length_errorC1B8ue170006EPKc, symObjAddr: 0x5D70, symBinAddr: 0x1000074BC, symSize: 0x34 }
  - { offsetInCU: 0x171C9, offset: 0x171C9, size: 0x8, addend: 0x0, symName: __ZNSt12length_errorC2B8ue170006EPKc, symObjAddr: 0x5DA4, symBinAddr: 0x1000074F0, symSize: 0x4C }
  - { offsetInCU: 0x17201, offset: 0x17201, size: 0x8, addend: 0x0, symName: __ZNSt3__114__split_bufferI6TraderRNS_9allocatorIS1_EEEC2EmmS4_, symObjAddr: 0x5E44, symBinAddr: 0x100007590, symSize: 0xE0 }
  - { offsetInCU: 0x17274, offset: 0x17274, size: 0x8, addend: 0x0, symName: __ZNSt3__117__compressed_pairIP6TraderRNS_9allocatorIS1_EEEC1B8ue170006IDnS5_EEOT_OT0_, symObjAddr: 0x5F24, symBinAddr: 0x100007670, symSize: 0x3C }
  - { offsetInCU: 0x172CC, offset: 0x172CC, size: 0x8, addend: 0x0, symName: __ZNSt3__114__split_bufferI6TraderRNS_9allocatorIS1_EEE7__allocB8ue170006Ev, symObjAddr: 0x5FA0, symBinAddr: 0x1000076EC, symSize: 0x28 }
  - { offsetInCU: 0x172F2, offset: 0x172F2, size: 0x8, addend: 0x0, symName: __ZNSt3__114__split_bufferI6TraderRNS_9allocatorIS1_EEE9__end_capB8ue170006Ev, symObjAddr: 0x5FC8, symBinAddr: 0x100007714, symSize: 0x28 }
  - { offsetInCU: 0x17318, offset: 0x17318, size: 0x8, addend: 0x0, symName: __ZNSt3__117__compressed_pairIP6TraderRNS_9allocatorIS1_EEEC2B8ue170006IDnS5_EEOT_OT0_, symObjAddr: 0x5FF0, symBinAddr: 0x10000773C, symSize: 0x48 }
  - { offsetInCU: 0x17370, offset: 0x17370, size: 0x8, addend: 0x0, symName: __ZNSt3__122__compressed_pair_elemIRNS_9allocatorI6TraderEELi1ELb0EEC2B8ue170006IS4_vEEOT_, symObjAddr: 0x6038, symBinAddr: 0x100007784, symSize: 0x20 }
  - { offsetInCU: 0x173B2, offset: 0x173B2, size: 0x8, addend: 0x0, symName: __ZNSt3__19allocatorI6TraderE8allocateB8ue170006Em, symObjAddr: 0x6058, symBinAddr: 0x1000077A4, symSize: 0x5C }
  - { offsetInCU: 0x173E6, offset: 0x173E6, size: 0x8, addend: 0x0, symName: __ZNSt3__117__compressed_pairIP6TraderRNS_9allocatorIS1_EEE6secondB8ue170006Ev, symObjAddr: 0x6198, symBinAddr: 0x1000078E4, symSize: 0x28 }
  - { offsetInCU: 0x1740C, offset: 0x1740C, size: 0x8, addend: 0x0, symName: __ZNSt3__122__compressed_pair_elemIRNS_9allocatorI6TraderEELi1ELb0EE5__getB8ue170006Ev, symObjAddr: 0x61C0, symBinAddr: 0x10000790C, symSize: 0x18 }
  - { offsetInCU: 0x17432, offset: 0x17432, size: 0x8, addend: 0x0, symName: __ZNSt3__117__compressed_pairIP6TraderRNS_9allocatorIS1_EEE5firstB8ue170006Ev, symObjAddr: 0x61D8, symBinAddr: 0x100007924, symSize: 0x24 }
  - { offsetInCU: 0x17462, offset: 0x17462, size: 0x8, addend: 0x0, symName: __ZNSt3__114__split_bufferI6TraderRNS_9allocatorIS1_EEE21_ConstructTransactionC1B8ue170006EPPS1_m, symObjAddr: 0x61FC, symBinAddr: 0x100007948, symSize: 0x3C }
  - { offsetInCU: 0x174A8, offset: 0x174A8, size: 0x8, addend: 0x0, symName: __ZNSt3__114__split_bufferI6TraderRNS_9allocatorIS1_EEE21_ConstructTransactionD1B8ue170006Ev, symObjAddr: 0x6238, symBinAddr: 0x100007984, symSize: 0x2C }
  - { offsetInCU: 0x174D2, offset: 0x174D2, size: 0x8, addend: 0x0, symName: __ZNSt3__114__split_bufferI6TraderRNS_9allocatorIS1_EEE21_ConstructTransactionC2B8ue170006EPPS1_m, symObjAddr: 0x6264, symBinAddr: 0x1000079B0, symSize: 0x4C }
  - { offsetInCU: 0x17518, offset: 0x17518, size: 0x8, addend: 0x0, symName: __ZNSt3__114__split_bufferI6TraderRNS_9allocatorIS1_EEE21_ConstructTransactionD2B8ue170006Ev, symObjAddr: 0x62B0, symBinAddr: 0x1000079FC, symSize: 0x20 }
  - { offsetInCU: 0x17542, offset: 0x17542, size: 0x8, addend: 0x0, symName: __ZNSt3__116reverse_iteratorIP6TraderEC1B8ue170006ES2_, symObjAddr: 0x6348, symBinAddr: 0x100007A94, symSize: 0x34 }
  - { offsetInCU: 0x1757A, offset: 0x1757A, size: 0x8, addend: 0x0, symName: __ZNKSt3__116reverse_iteratorIP6TraderE4baseB8ue170006Ev, symObjAddr: 0x637C, symBinAddr: 0x100007AC8, symSize: 0x18 }
  - { offsetInCU: 0x175A0, offset: 0x175A0, size: 0x8, addend: 0x0, symName: __ZNKSt3__16vectorI6TraderNS_9allocatorIS1_EEE14__annotate_newB8ue170006Em, symObjAddr: 0x63D0, symBinAddr: 0x100007B1C, symSize: 0xC8 }
  - { offsetInCU: 0x175F9, offset: 0x175F9, size: 0x8, addend: 0x0, symName: __ZNKSt3__111__move_loopINS_17_ClassicAlgPolicyEEclB8ue170006INS_16reverse_iteratorIP6TraderEES7_S7_EENS_4pairIT_T1_EES9_T0_SA_, symObjAddr: 0x6788, symBinAddr: 0x100007ED4, symSize: 0xA8 }
  - { offsetInCU: 0x1766A, offset: 0x1766A, size: 0x8, addend: 0x0, symName: __ZNSt3__18_IterOpsINS_17_ClassicAlgPolicyEE11__iter_moveB8ue170006IRNS_16reverse_iteratorIP6TraderEEEENS_9enable_ifIXsr12is_referenceIDTdeclsr3stdE7declvalIRT_EEEEE5valueEDTclsr3stdE4movedeclsr3stdE7declvalISB_EEEEE4typeEOSA_, symObjAddr: 0x69C4, symBinAddr: 0x100008110, symSize: 0x28 }
  - { offsetInCU: 0x17696, offset: 0x17696, size: 0x8, addend: 0x0, symName: __ZNKSt3__116reverse_iteratorIP6TraderEdeB8ue170006Ev, symObjAddr: 0x69EC, symBinAddr: 0x100008138, symSize: 0x28 }
  - { offsetInCU: 0x176CA, offset: 0x176CA, size: 0x8, addend: 0x0, symName: __ZNSt3__116reverse_iteratorIP6TraderEppB8ue170006Ev, symObjAddr: 0x6A14, symBinAddr: 0x100008160, symSize: 0x20 }
  - { offsetInCU: 0x176F0, offset: 0x176F0, size: 0x8, addend: 0x0, symName: __ZNSt3__18_IterOpsINS_17_ClassicAlgPolicyEE25__validate_iter_referenceB8ue170006IRNS_16reverse_iteratorIP6TraderEEEEvv, symObjAddr: 0x6A34, symBinAddr: 0x100008180, symSize: 0x4 }
  - { offsetInCU: 0x1770E, offset: 0x1770E, size: 0x8, addend: 0x0, symName: __ZNSt3__118__unwrap_iter_implINS_16reverse_iteratorIP6TraderEELb0EE8__unwrapB8ue170006ES4_, symObjAddr: 0x6A38, symBinAddr: 0x100008184, symSize: 0x24 }
  - { offsetInCU: 0x17737, offset: 0x17737, size: 0x8, addend: 0x0, symName: __ZNSt3__14pairINS_16reverse_iteratorIP6TraderEES4_EC1B8ue170006IS4_S4_LPv0EEEOT_OT0_, symObjAddr: 0x6A5C, symBinAddr: 0x1000081A8, symSize: 0x3C }
  - { offsetInCU: 0x17795, offset: 0x17795, size: 0x8, addend: 0x0, symName: __ZNSt3__14pairINS_16reverse_iteratorIP6TraderEES4_EC2B8ue170006IS4_S4_LPv0EEEOT_OT0_, symObjAddr: 0x6A98, symBinAddr: 0x1000081E4, symSize: 0x34 }
  - { offsetInCU: 0x177F3, offset: 0x177F3, size: 0x8, addend: 0x0, symName: __ZNSt3__118__unwrap_iter_implINS_16reverse_iteratorIP6TraderEELb0EE8__rewrapB8ue170006ES4_S4_, symObjAddr: 0x6ACC, symBinAddr: 0x100008218, symSize: 0x2C }
  - { offsetInCU: 0x17821, offset: 0x17821, size: 0x8, addend: 0x0, symName: __ZNSt3__116reverse_iteratorIP6TraderEC2B8ue170006ES2_, symObjAddr: 0x6AF8, symBinAddr: 0x100008244, symSize: 0x28 }
  - { offsetInCU: 0x17859, offset: 0x17859, size: 0x8, addend: 0x0, symName: __ZNSt3__114__split_bufferI6TraderRNS_9allocatorIS1_EEED2Ev, symObjAddr: 0x6B20, symBinAddr: 0x10000826C, symSize: 0x8C }
  - { offsetInCU: 0x17885, offset: 0x17885, size: 0x8, addend: 0x0, symName: __ZNSt3__114__split_bufferI6TraderRNS_9allocatorIS1_EEE5clearB8ue170006Ev, symObjAddr: 0x6BAC, symBinAddr: 0x1000082F8, symSize: 0x28 }
  - { offsetInCU: 0x178AB, offset: 0x178AB, size: 0x8, addend: 0x0, symName: __ZNKSt3__114__split_bufferI6TraderRNS_9allocatorIS1_EEE8capacityB8ue170006Ev, symObjAddr: 0x6BD4, symBinAddr: 0x100008320, symSize: 0x40 }
  - { offsetInCU: 0x178D1, offset: 0x178D1, size: 0x8, addend: 0x0, symName: __ZNSt3__114__split_bufferI6TraderRNS_9allocatorIS1_EEE17__destruct_at_endB8ue170006EPS1_, symObjAddr: 0x6C14, symBinAddr: 0x100008360, symSize: 0x2C }
  - { offsetInCU: 0x17905, offset: 0x17905, size: 0x8, addend: 0x0, symName: __ZNSt3__114__split_bufferI6TraderRNS_9allocatorIS1_EEE17__destruct_at_endB8ue170006EPS1_NS_17integral_constantIbLb0EEE, symObjAddr: 0x6C40, symBinAddr: 0x10000838C, symSize: 0x80 }
  - { offsetInCU: 0x17946, offset: 0x17946, size: 0x8, addend: 0x0, symName: __ZNKSt3__114__split_bufferI6TraderRNS_9allocatorIS1_EEE9__end_capB8ue170006Ev, symObjAddr: 0x6CC0, symBinAddr: 0x10000840C, symSize: 0x28 }
  - { offsetInCU: 0x1796C, offset: 0x1796C, size: 0x8, addend: 0x0, symName: __ZNKSt3__117__compressed_pairIP6TraderRNS_9allocatorIS1_EEE5firstB8ue170006Ev, symObjAddr: 0x6CE8, symBinAddr: 0x100008434, symSize: 0x24 }
  - { offsetInCU: 0x17992, offset: 0x17992, size: 0x8, addend: 0x0, symName: __ZNKSt3__16vectorI6TraderNS_9allocatorIS1_EEE17__annotate_shrinkB8ue170006Em, symObjAddr: 0x6D0C, symBinAddr: 0x100008458, symSize: 0xD0 }
  - { offsetInCU: 0x179C7, offset: 0x179C7, size: 0x8, addend: 0x0, symName: __ZNSt3__16vectorI5StockNS_9allocatorIS1_EEE8__appendEm, symObjAddr: 0x6DDC, symBinAddr: 0x100008528, symSize: 0x108 }
  - { offsetInCU: 0x17A22, offset: 0x17A22, size: 0x8, addend: 0x0, symName: __ZNSt3__16vectorI5StockNS_9allocatorIS1_EEE17__destruct_at_endB8ue170006EPS1_, symObjAddr: 0x6EE4, symBinAddr: 0x100008630, symSize: 0x4C }
  - { offsetInCU: 0x17A66, offset: 0x17A66, size: 0x8, addend: 0x0, symName: __ZNSt3__16vectorI5StockNS_9allocatorIS1_EEE9__end_capB8ue170006Ev, symObjAddr: 0x6F30, symBinAddr: 0x10000867C, symSize: 0x28 }
  - { offsetInCU: 0x17A8C, offset: 0x17A8C, size: 0x8, addend: 0x0, symName: __ZNSt3__16vectorI5StockNS_9allocatorIS1_EEE18__construct_at_endEm, symObjAddr: 0x6F58, symBinAddr: 0x1000086A4, symSize: 0xC8 }
  - { offsetInCU: 0x17AFE, offset: 0x17AFE, size: 0x8, addend: 0x0, symName: __ZNKSt3__16vectorI5StockNS_9allocatorIS1_EEE11__recommendB8ue170006Em, symObjAddr: 0x7020, symBinAddr: 0x10000876C, symSize: 0xB4 }
  - { offsetInCU: 0x17B53, offset: 0x17B53, size: 0x8, addend: 0x0, symName: __ZNSt3__114__split_bufferI5StockRNS_9allocatorIS1_EEEC1EmmS4_, symObjAddr: 0x70D4, symBinAddr: 0x100008820, symSize: 0x44 }
  - { offsetInCU: 0x17BA9, offset: 0x17BA9, size: 0x8, addend: 0x0, symName: __ZNSt3__114__split_bufferI5StockRNS_9allocatorIS1_EEE18__construct_at_endEm, symObjAddr: 0x7118, symBinAddr: 0x100008864, symSize: 0xB4 }
  - { offsetInCU: 0x17BEE, offset: 0x17BEE, size: 0x8, addend: 0x0, symName: __ZNSt3__114__split_bufferI5StockRNS_9allocatorIS1_EEED1Ev, symObjAddr: 0x72DC, symBinAddr: 0x100008A28, symSize: 0x2C }
  - { offsetInCU: 0x17C1A, offset: 0x17C1A, size: 0x8, addend: 0x0, symName: __ZNSt3__117__compressed_pairIP5StockNS_9allocatorIS1_EEE5firstB8ue170006Ev, symObjAddr: 0x7308, symBinAddr: 0x100008A54, symSize: 0x24 }
  - { offsetInCU: 0x17C40, offset: 0x17C40, size: 0x8, addend: 0x0, symName: __ZNSt3__122__compressed_pair_elemIP5StockLi0ELb0EE5__getB8ue170006Ev, symObjAddr: 0x732C, symBinAddr: 0x100008A78, symSize: 0x14 }
  - { offsetInCU: 0x17C7F, offset: 0x17C7F, size: 0x8, addend: 0x0, symName: __ZNSt3__16vectorI5StockNS_9allocatorIS1_EEE21_ConstructTransactionC1B8ue170006ERS4_m, symObjAddr: 0x7340, symBinAddr: 0x100008A8C, symSize: 0x3C }
  - { offsetInCU: 0x17CC7, offset: 0x17CC7, size: 0x8, addend: 0x0, symName: __ZNSt3__116allocator_traitsINS_9allocatorI5StockEEE9constructB8ue170006IS2_JEvEEvRS3_PT_DpOT0_, symObjAddr: 0x737C, symBinAddr: 0x100008AC8, symSize: 0x2C }
  - { offsetInCU: 0x17D09, offset: 0x17D09, size: 0x8, addend: 0x0, symName: __ZNSt3__16vectorI5StockNS_9allocatorIS1_EEE21_ConstructTransactionD1B8ue170006Ev, symObjAddr: 0x73A8, symBinAddr: 0x100008AF4, symSize: 0x2C }
  - { offsetInCU: 0x17D33, offset: 0x17D33, size: 0x8, addend: 0x0, symName: __ZNSt3__16vectorI5StockNS_9allocatorIS1_EEE21_ConstructTransactionC2B8ue170006ERS4_m, symObjAddr: 0x73D4, symBinAddr: 0x100008B20, symSize: 0x4C }
  - { offsetInCU: 0x17D7B, offset: 0x17D7B, size: 0x8, addend: 0x0, symName: __ZNSt3__19allocatorI5StockE9constructB8ue170006IS1_JEEEvPT_DpOT0_, symObjAddr: 0x7420, symBinAddr: 0x100008B6C, symSize: 0x3C }
  - { offsetInCU: 0x17DBD, offset: 0x17DBD, size: 0x8, addend: 0x0, symName: __ZN5StockC1Ev, symObjAddr: 0x745C, symBinAddr: 0x100008BA8, symSize: 0x2C }
  - { offsetInCU: 0x17DE9, offset: 0x17DE9, size: 0x8, addend: 0x0, symName: __ZN5StockC2Ev, symObjAddr: 0x7488, symBinAddr: 0x100008BD4, symSize: 0x68 }
  - { offsetInCU: 0x17E15, offset: 0x17E15, size: 0x8, addend: 0x0, symName: __ZNSt3__114priority_queueI5OrderNS_6vectorIS1_NS_9allocatorIS1_EEEE13buyer_functorEC1B8ue170006Ev, symObjAddr: 0x74F0, symBinAddr: 0x100008C3C, symSize: 0x2C }
  - { offsetInCU: 0x17E3F, offset: 0x17E3F, size: 0x8, addend: 0x0, symName: __ZNSt3__114priority_queueI5OrderNS_6vectorIS1_NS_9allocatorIS1_EEEE14seller_functorEC1B8ue170006Ev, symObjAddr: 0x751C, symBinAddr: 0x100008C68, symSize: 0x2C }
  - { offsetInCU: 0x17E69, offset: 0x17E69, size: 0x8, addend: 0x0, symName: __ZNSt3__114priority_queueIxNS_6vectorIxNS_9allocatorIxEEEENS_7greaterIxEEEC1B8ue170006Ev, symObjAddr: 0x7548, symBinAddr: 0x100008C94, symSize: 0x2C }
  - { offsetInCU: 0x17E93, offset: 0x17E93, size: 0x8, addend: 0x0, symName: __ZNSt3__114priority_queueIxNS_6vectorIxNS_9allocatorIxEEEENS_4lessIxEEEC1B8ue170006Ev, symObjAddr: 0x7574, symBinAddr: 0x100008CC0, symSize: 0x2C }
  - { offsetInCU: 0x17EBD, offset: 0x17EBD, size: 0x8, addend: 0x0, symName: __ZNSt3__16vectorIxNS_9allocatorIxEEEC1B8ue170006Ev, symObjAddr: 0x75A0, symBinAddr: 0x100008CEC, symSize: 0x2C }
  - { offsetInCU: 0x17EE7, offset: 0x17EE7, size: 0x8, addend: 0x0, symName: __ZNSt3__114priority_queueI5OrderNS_6vectorIS1_NS_9allocatorIS1_EEEE13buyer_functorEC2B8ue170006Ev, symObjAddr: 0x75CC, symBinAddr: 0x100008D18, symSize: 0x2C }
  - { offsetInCU: 0x17F11, offset: 0x17F11, size: 0x8, addend: 0x0, symName: __ZNSt3__16vectorI5OrderNS_9allocatorIS1_EEEC1B8ue170006Ev, symObjAddr: 0x75F8, symBinAddr: 0x100008D44, symSize: 0x2C }
  - { offsetInCU: 0x17F3B, offset: 0x17F3B, size: 0x8, addend: 0x0, symName: __ZNSt3__16vectorI5OrderNS_9allocatorIS1_EEEC2B8ue170006Ev, symObjAddr: 0x7624, symBinAddr: 0x100008D70, symSize: 0x4C }
  - { offsetInCU: 0x17F65, offset: 0x17F65, size: 0x8, addend: 0x0, symName: __ZNSt3__117__compressed_pairIP5OrderNS_9allocatorIS1_EEEC1B8ue170006IDnNS_18__default_init_tagEEEOT_OT0_, symObjAddr: 0x7670, symBinAddr: 0x100008DBC, symSize: 0x3C }
  - { offsetInCU: 0x17FBD, offset: 0x17FBD, size: 0x8, addend: 0x0, symName: __ZNSt3__117__compressed_pairIP5OrderNS_9allocatorIS1_EEEC2B8ue170006IDnNS_18__default_init_tagEEEOT_OT0_, symObjAddr: 0x76AC, symBinAddr: 0x100008DF8, symSize: 0x40 }
  - { offsetInCU: 0x18015, offset: 0x18015, size: 0x8, addend: 0x0, symName: __ZNSt3__122__compressed_pair_elemIP5OrderLi0ELb0EEC2B8ue170006IDnvEEOT_, symObjAddr: 0x76EC, symBinAddr: 0x100008E38, symSize: 0x1C }
  - { offsetInCU: 0x18057, offset: 0x18057, size: 0x8, addend: 0x0, symName: __ZNSt3__122__compressed_pair_elemINS_9allocatorI5OrderEELi1ELb1EEC2B8ue170006ENS_18__default_init_tagE, symObjAddr: 0x7708, symBinAddr: 0x100008E54, symSize: 0x2C }
  - { offsetInCU: 0x1808C, offset: 0x1808C, size: 0x8, addend: 0x0, symName: __ZNSt3__19allocatorI5OrderEC2B8ue170006Ev, symObjAddr: 0x7734, symBinAddr: 0x100008E80, symSize: 0x2C }
  - { offsetInCU: 0x180B6, offset: 0x180B6, size: 0x8, addend: 0x0, symName: __ZNSt3__116__non_trivial_ifILb1ENS_9allocatorI5OrderEEEC2B8ue170006Ev, symObjAddr: 0x7760, symBinAddr: 0x100008EAC, symSize: 0x14 }
  - { offsetInCU: 0x180E0, offset: 0x180E0, size: 0x8, addend: 0x0, symName: __ZNSt3__114priority_queueI5OrderNS_6vectorIS1_NS_9allocatorIS1_EEEE14seller_functorEC2B8ue170006Ev, symObjAddr: 0x7774, symBinAddr: 0x100008EC0, symSize: 0x2C }
  - { offsetInCU: 0x1810A, offset: 0x1810A, size: 0x8, addend: 0x0, symName: __ZNSt3__114priority_queueIxNS_6vectorIxNS_9allocatorIxEEEENS_7greaterIxEEEC2B8ue170006Ev, symObjAddr: 0x77A0, symBinAddr: 0x100008EEC, symSize: 0x2C }
  - { offsetInCU: 0x18134, offset: 0x18134, size: 0x8, addend: 0x0, symName: __ZNSt3__114priority_queueIxNS_6vectorIxNS_9allocatorIxEEEENS_4lessIxEEEC2B8ue170006Ev, symObjAddr: 0x77CC, symBinAddr: 0x100008F18, symSize: 0x2C }
  - { offsetInCU: 0x1815E, offset: 0x1815E, size: 0x8, addend: 0x0, symName: __ZNSt3__16vectorIxNS_9allocatorIxEEEC2B8ue170006Ev, symObjAddr: 0x77F8, symBinAddr: 0x100008F44, symSize: 0x4C }
  - { offsetInCU: 0x18188, offset: 0x18188, size: 0x8, addend: 0x0, symName: __ZNSt3__117__compressed_pairIPxNS_9allocatorIxEEEC1B8ue170006IDnNS_18__default_init_tagEEEOT_OT0_, symObjAddr: 0x7844, symBinAddr: 0x100008F90, symSize: 0x3C }
  - { offsetInCU: 0x181E0, offset: 0x181E0, size: 0x8, addend: 0x0, symName: __ZNSt3__117__compressed_pairIPxNS_9allocatorIxEEEC2B8ue170006IDnNS_18__default_init_tagEEEOT_OT0_, symObjAddr: 0x7880, symBinAddr: 0x100008FCC, symSize: 0x40 }
  - { offsetInCU: 0x18238, offset: 0x18238, size: 0x8, addend: 0x0, symName: __ZNSt3__122__compressed_pair_elemIPxLi0ELb0EEC2B8ue170006IDnvEEOT_, symObjAddr: 0x78C0, symBinAddr: 0x10000900C, symSize: 0x1C }
  - { offsetInCU: 0x1827A, offset: 0x1827A, size: 0x8, addend: 0x0, symName: __ZNSt3__122__compressed_pair_elemINS_9allocatorIxEELi1ELb1EEC2B8ue170006ENS_18__default_init_tagE, symObjAddr: 0x78DC, symBinAddr: 0x100009028, symSize: 0x2C }
  - { offsetInCU: 0x182AF, offset: 0x182AF, size: 0x8, addend: 0x0, symName: __ZNSt3__19allocatorIxEC2B8ue170006Ev, symObjAddr: 0x7908, symBinAddr: 0x100009054, symSize: 0x2C }
  - { offsetInCU: 0x182D9, offset: 0x182D9, size: 0x8, addend: 0x0, symName: __ZNSt3__116__non_trivial_ifILb1ENS_9allocatorIxEEEC2B8ue170006Ev, symObjAddr: 0x7934, symBinAddr: 0x100009080, symSize: 0x14 }
  - { offsetInCU: 0x18303, offset: 0x18303, size: 0x8, addend: 0x0, symName: __ZNSt3__16vectorI5StockNS_9allocatorIS1_EEE21_ConstructTransactionD2B8ue170006Ev, symObjAddr: 0x7948, symBinAddr: 0x100009094, symSize: 0x20 }
  - { offsetInCU: 0x1832D, offset: 0x1832D, size: 0x8, addend: 0x0, symName: __ZNKSt3__16vectorI5StockNS_9allocatorIS1_EEE8max_sizeEv, symObjAddr: 0x7968, symBinAddr: 0x1000090B4, symSize: 0x60 }
  - { offsetInCU: 0x18355, offset: 0x18355, size: 0x8, addend: 0x0, symName: __ZNKSt3__16vectorI5StockNS_9allocatorIS1_EEE20__throw_length_errorB8ue170006Ev, symObjAddr: 0x79C8, symBinAddr: 0x100009114, symSize: 0x1C }
  - { offsetInCU: 0x18385, offset: 0x18385, size: 0x8, addend: 0x0, symName: __ZNSt3__116allocator_traitsINS_9allocatorI5StockEEE8max_sizeB8ue170006IS3_vEEmRKS3_, symObjAddr: 0x79E4, symBinAddr: 0x100009130, symSize: 0x24 }
  - { offsetInCU: 0x183B3, offset: 0x183B3, size: 0x8, addend: 0x0, symName: __ZNKSt3__16vectorI5StockNS_9allocatorIS1_EEE7__allocB8ue170006Ev, symObjAddr: 0x7A08, symBinAddr: 0x100009154, symSize: 0x28 }
  - { offsetInCU: 0x183D9, offset: 0x183D9, size: 0x8, addend: 0x0, symName: __ZNKSt3__19allocatorI5StockE8max_sizeB8ue170006Ev, symObjAddr: 0x7A30, symBinAddr: 0x10000917C, symSize: 0x20 }
  - { offsetInCU: 0x183FF, offset: 0x183FF, size: 0x8, addend: 0x0, symName: __ZNKSt3__117__compressed_pairIP5StockNS_9allocatorIS1_EEE6secondB8ue170006Ev, symObjAddr: 0x7A50, symBinAddr: 0x10000919C, symSize: 0x24 }
  - { offsetInCU: 0x18425, offset: 0x18425, size: 0x8, addend: 0x0, symName: __ZNKSt3__122__compressed_pair_elemINS_9allocatorI5StockEELi1ELb1EE5__getB8ue170006Ev, symObjAddr: 0x7A74, symBinAddr: 0x1000091C0, symSize: 0x14 }
  - { offsetInCU: 0x1844B, offset: 0x1844B, size: 0x8, addend: 0x0, symName: __ZNSt3__114__split_bufferI5StockRNS_9allocatorIS1_EEEC2EmmS4_, symObjAddr: 0x7A88, symBinAddr: 0x1000091D4, symSize: 0xE0 }
  - { offsetInCU: 0x184BE, offset: 0x184BE, size: 0x8, addend: 0x0, symName: __ZNSt3__117__compressed_pairIP5StockRNS_9allocatorIS1_EEEC1B8ue170006IDnS5_EEOT_OT0_, symObjAddr: 0x7B68, symBinAddr: 0x1000092B4, symSize: 0x3C }
  - { offsetInCU: 0x18516, offset: 0x18516, size: 0x8, addend: 0x0, symName: __ZNSt3__114__split_bufferI5StockRNS_9allocatorIS1_EEE7__allocB8ue170006Ev, symObjAddr: 0x7BE4, symBinAddr: 0x100009330, symSize: 0x28 }
  - { offsetInCU: 0x1853C, offset: 0x1853C, size: 0x8, addend: 0x0, symName: __ZNSt3__114__split_bufferI5StockRNS_9allocatorIS1_EEE9__end_capB8ue170006Ev, symObjAddr: 0x7C0C, symBinAddr: 0x100009358, symSize: 0x28 }
  - { offsetInCU: 0x18562, offset: 0x18562, size: 0x8, addend: 0x0, symName: __ZNSt3__117__compressed_pairIP5StockRNS_9allocatorIS1_EEEC2B8ue170006IDnS5_EEOT_OT0_, symObjAddr: 0x7C34, symBinAddr: 0x100009380, symSize: 0x48 }
  - { offsetInCU: 0x185BA, offset: 0x185BA, size: 0x8, addend: 0x0, symName: __ZNSt3__122__compressed_pair_elemIRNS_9allocatorI5StockEELi1ELb0EEC2B8ue170006IS4_vEEOT_, symObjAddr: 0x7C7C, symBinAddr: 0x1000093C8, symSize: 0x20 }
  - { offsetInCU: 0x185FC, offset: 0x185FC, size: 0x8, addend: 0x0, symName: __ZNSt3__19allocatorI5StockE8allocateB8ue170006Em, symObjAddr: 0x7C9C, symBinAddr: 0x1000093E8, symSize: 0x5C }
  - { offsetInCU: 0x18630, offset: 0x18630, size: 0x8, addend: 0x0, symName: __ZNSt3__117__compressed_pairIP5StockRNS_9allocatorIS1_EEE6secondB8ue170006Ev, symObjAddr: 0x7CF8, symBinAddr: 0x100009444, symSize: 0x28 }
  - { offsetInCU: 0x18656, offset: 0x18656, size: 0x8, addend: 0x0, symName: __ZNSt3__122__compressed_pair_elemIRNS_9allocatorI5StockEELi1ELb0EE5__getB8ue170006Ev, symObjAddr: 0x7D20, symBinAddr: 0x10000946C, symSize: 0x18 }
  - { offsetInCU: 0x1867C, offset: 0x1867C, size: 0x8, addend: 0x0, symName: __ZNSt3__117__compressed_pairIP5StockRNS_9allocatorIS1_EEE5firstB8ue170006Ev, symObjAddr: 0x7D38, symBinAddr: 0x100009484, symSize: 0x24 }
  - { offsetInCU: 0x186AC, offset: 0x186AC, size: 0x8, addend: 0x0, symName: __ZNSt3__114__split_bufferI5StockRNS_9allocatorIS1_EEE21_ConstructTransactionC1B8ue170006EPPS1_m, symObjAddr: 0x7D5C, symBinAddr: 0x1000094A8, symSize: 0x3C }
  - { offsetInCU: 0x186F2, offset: 0x186F2, size: 0x8, addend: 0x0, symName: __ZNSt3__114__split_bufferI5StockRNS_9allocatorIS1_EEE21_ConstructTransactionD1B8ue170006Ev, symObjAddr: 0x7D98, symBinAddr: 0x1000094E4, symSize: 0x2C }
  - { offsetInCU: 0x1871C, offset: 0x1871C, size: 0x8, addend: 0x0, symName: __ZNSt3__114__split_bufferI5StockRNS_9allocatorIS1_EEE21_ConstructTransactionC2B8ue170006EPPS1_m, symObjAddr: 0x7DC4, symBinAddr: 0x100009510, symSize: 0x4C }
  - { offsetInCU: 0x18762, offset: 0x18762, size: 0x8, addend: 0x0, symName: __ZNSt3__114__split_bufferI5StockRNS_9allocatorIS1_EEE21_ConstructTransactionD2B8ue170006Ev, symObjAddr: 0x7E10, symBinAddr: 0x10000955C, symSize: 0x20 }
  - { offsetInCU: 0x1878C, offset: 0x1878C, size: 0x8, addend: 0x0, symName: __ZNSt3__116reverse_iteratorIP5StockEC1B8ue170006ES2_, symObjAddr: 0x7F5C, symBinAddr: 0x1000096A8, symSize: 0x34 }
  - { offsetInCU: 0x187C4, offset: 0x187C4, size: 0x8, addend: 0x0, symName: __ZNKSt3__116reverse_iteratorIP5StockE4baseB8ue170006Ev, symObjAddr: 0x7F90, symBinAddr: 0x1000096DC, symSize: 0x18 }
  - { offsetInCU: 0x187EA, offset: 0x187EA, size: 0x8, addend: 0x0, symName: __ZNKSt3__16vectorI5StockNS_9allocatorIS1_EEE14__annotate_newB8ue170006Em, symObjAddr: 0x7FE4, symBinAddr: 0x100009730, symSize: 0xC8 }
  - { offsetInCU: 0x1881F, offset: 0x1881F, size: 0x8, addend: 0x0, symName: __ZNSt3__129_AllocatorDestroyRangeReverseINS_9allocatorI5StockEENS_16reverse_iteratorIPS2_EEEC1B8ue170006ERS3_RS6_S9_, symObjAddr: 0x80F8, symBinAddr: 0x100009844, symSize: 0x44 }
  - { offsetInCU: 0x1887C, offset: 0x1887C, size: 0x8, addend: 0x0, symName: __ZNSt3__116allocator_traitsINS_9allocatorI5StockEEE9constructB8ue170006IS2_JS2_EvEEvRS3_PT_DpOT0_, symObjAddr: 0x8184, symBinAddr: 0x1000098D0, symSize: 0x34 }
  - { offsetInCU: 0x188D3, offset: 0x188D3, size: 0x8, addend: 0x0, symName: __ZNKSt3__116reverse_iteratorIP5StockEdeB8ue170006Ev, symObjAddr: 0x81DC, symBinAddr: 0x100009928, symSize: 0x28 }
  - { offsetInCU: 0x18907, offset: 0x18907, size: 0x8, addend: 0x0, symName: __ZNSt3__116reverse_iteratorIP5StockEppB8ue170006Ev, symObjAddr: 0x8204, symBinAddr: 0x100009950, symSize: 0x20 }
  - { offsetInCU: 0x1892D, offset: 0x1892D, size: 0x8, addend: 0x0, symName: __ZNSt3__128__exception_guard_exceptionsINS_29_AllocatorDestroyRangeReverseINS_9allocatorI5StockEENS_16reverse_iteratorIPS3_EEEEE10__completeB8ue170006Ev, symObjAddr: 0x8224, symBinAddr: 0x100009970, symSize: 0x1C }
  - { offsetInCU: 0x18953, offset: 0x18953, size: 0x8, addend: 0x0, symName: __ZNSt3__128__exception_guard_exceptionsINS_29_AllocatorDestroyRangeReverseINS_9allocatorI5StockEENS_16reverse_iteratorIPS3_EEEEED1B8ue170006Ev, symObjAddr: 0x8240, symBinAddr: 0x10000998C, symSize: 0x2C }
  - { offsetInCU: 0x1897D, offset: 0x1897D, size: 0x8, addend: 0x0, symName: __ZNSt3__128__exception_guard_exceptionsINS_29_AllocatorDestroyRangeReverseINS_9allocatorI5StockEENS_16reverse_iteratorIPS3_EEEEEC1B8ue170006ES8_, symObjAddr: 0x826C, symBinAddr: 0x1000099B8, symSize: 0x34 }
  - { offsetInCU: 0x189B6, offset: 0x189B6, size: 0x8, addend: 0x0, symName: __ZNSt3__128__exception_guard_exceptionsINS_29_AllocatorDestroyRangeReverseINS_9allocatorI5StockEENS_16reverse_iteratorIPS3_EEEEEC2B8ue170006ES8_, symObjAddr: 0x82A0, symBinAddr: 0x1000099EC, symSize: 0x30 }
  - { offsetInCU: 0x189EF, offset: 0x189EF, size: 0x8, addend: 0x0, symName: __ZNSt3__129_AllocatorDestroyRangeReverseINS_9allocatorI5StockEENS_16reverse_iteratorIPS2_EEEC2B8ue170006ERS3_RS6_S9_, symObjAddr: 0x82D0, symBinAddr: 0x100009A1C, symSize: 0x38 }
  - { offsetInCU: 0x18A46, offset: 0x18A46, size: 0x8, addend: 0x0, symName: __ZNSt3__19allocatorI5StockE9constructB8ue170006IS1_JS1_EEEvPT_DpOT0_, symObjAddr: 0x8308, symBinAddr: 0x100009A54, symSize: 0x30 }
  - { offsetInCU: 0x18A9C, offset: 0x18A9C, size: 0x8, addend: 0x0, symName: __ZN5StockC1EOS_, symObjAddr: 0x8338, symBinAddr: 0x100009A84, symSize: 0x34 }
  - { offsetInCU: 0x18AD1, offset: 0x18AD1, size: 0x8, addend: 0x0, symName: __ZN5StockC2EOS_, symObjAddr: 0x836C, symBinAddr: 0x100009AB8, symSize: 0x98 }
  - { offsetInCU: 0x18B06, offset: 0x18B06, size: 0x8, addend: 0x0, symName: __ZNSt3__114priority_queueI5OrderNS_6vectorIS1_NS_9allocatorIS1_EEEE13buyer_functorEC1B8ue170006EOS7_, symObjAddr: 0x8404, symBinAddr: 0x100009B50, symSize: 0x34 }
  - { offsetInCU: 0x18B3F, offset: 0x18B3F, size: 0x8, addend: 0x0, symName: __ZNSt3__114priority_queueI5OrderNS_6vectorIS1_NS_9allocatorIS1_EEEE14seller_functorEC1B8ue170006EOS7_, symObjAddr: 0x8438, symBinAddr: 0x100009B84, symSize: 0x34 }
  - { offsetInCU: 0x18B78, offset: 0x18B78, size: 0x8, addend: 0x0, symName: __ZNSt3__114priority_queueIxNS_6vectorIxNS_9allocatorIxEEEENS_7greaterIxEEEC1B8ue170006EOS7_, symObjAddr: 0x846C, symBinAddr: 0x100009BB8, symSize: 0x34 }
  - { offsetInCU: 0x18BB1, offset: 0x18BB1, size: 0x8, addend: 0x0, symName: __ZNSt3__114priority_queueIxNS_6vectorIxNS_9allocatorIxEEEENS_4lessIxEEEC1B8ue170006EOS7_, symObjAddr: 0x84A0, symBinAddr: 0x100009BEC, symSize: 0x34 }
  - { offsetInCU: 0x18BEA, offset: 0x18BEA, size: 0x8, addend: 0x0, symName: __ZNSt3__16vectorIxNS_9allocatorIxEEEC1B8ue170006EOS3_, symObjAddr: 0x84D4, symBinAddr: 0x100009C20, symSize: 0x34 }
  - { offsetInCU: 0x18C25, offset: 0x18C25, size: 0x8, addend: 0x0, symName: __ZNSt3__114priority_queueI5OrderNS_6vectorIS1_NS_9allocatorIS1_EEEE13buyer_functorEC2B8ue170006EOS7_, symObjAddr: 0x8508, symBinAddr: 0x100009C54, symSize: 0x34 }
  - { offsetInCU: 0x18C5E, offset: 0x18C5E, size: 0x8, addend: 0x0, symName: __ZNSt3__16vectorI5OrderNS_9allocatorIS1_EEEC1B8ue170006EOS4_, symObjAddr: 0x853C, symBinAddr: 0x100009C88, symSize: 0x34 }
  - { offsetInCU: 0x18C99, offset: 0x18C99, size: 0x8, addend: 0x0, symName: __ZNSt3__16vectorI5OrderNS_9allocatorIS1_EEEC2B8ue170006EOS4_, symObjAddr: 0x8570, symBinAddr: 0x100009CBC, symSize: 0xC4 }
  - { offsetInCU: 0x18CDA, offset: 0x18CDA, size: 0x8, addend: 0x0, symName: __ZNSt3__117__compressed_pairIP5OrderNS_9allocatorIS1_EEEC1B8ue170006IDnS4_EEOT_OT0_, symObjAddr: 0x8634, symBinAddr: 0x100009D80, symSize: 0x3C }
  - { offsetInCU: 0x18D32, offset: 0x18D32, size: 0x8, addend: 0x0, symName: __ZNSt3__16vectorI5OrderNS_9allocatorIS1_EEE9__end_capB8ue170006Ev, symObjAddr: 0x8670, symBinAddr: 0x100009DBC, symSize: 0x28 }
  - { offsetInCU: 0x18D58, offset: 0x18D58, size: 0x8, addend: 0x0, symName: __ZNSt3__117__compressed_pairIP5OrderNS_9allocatorIS1_EEEC2B8ue170006IDnS4_EEOT_OT0_, symObjAddr: 0x8698, symBinAddr: 0x100009DE4, symSize: 0x44 }
  - { offsetInCU: 0x18DB0, offset: 0x18DB0, size: 0x8, addend: 0x0, symName: __ZNSt3__122__compressed_pair_elemINS_9allocatorI5OrderEELi1ELb1EEC2B8ue170006IS3_vEEOT_, symObjAddr: 0x86DC, symBinAddr: 0x100009E28, symSize: 0x18 }
  - { offsetInCU: 0x18DF2, offset: 0x18DF2, size: 0x8, addend: 0x0, symName: __ZNSt3__117__compressed_pairIP5OrderNS_9allocatorIS1_EEE5firstB8ue170006Ev, symObjAddr: 0x86F4, symBinAddr: 0x100009E40, symSize: 0x24 }
  - { offsetInCU: 0x18E18, offset: 0x18E18, size: 0x8, addend: 0x0, symName: __ZNSt3__122__compressed_pair_elemIP5OrderLi0ELb0EE5__getB8ue170006Ev, symObjAddr: 0x8718, symBinAddr: 0x100009E64, symSize: 0x14 }
  - { offsetInCU: 0x18E3E, offset: 0x18E3E, size: 0x8, addend: 0x0, symName: __ZNSt3__114priority_queueI5OrderNS_6vectorIS1_NS_9allocatorIS1_EEEE14seller_functorEC2B8ue170006EOS7_, symObjAddr: 0x872C, symBinAddr: 0x100009E78, symSize: 0x34 }
  - { offsetInCU: 0x18E77, offset: 0x18E77, size: 0x8, addend: 0x0, symName: __ZNSt3__114priority_queueIxNS_6vectorIxNS_9allocatorIxEEEENS_7greaterIxEEEC2B8ue170006EOS7_, symObjAddr: 0x8760, symBinAddr: 0x100009EAC, symSize: 0x34 }
  - { offsetInCU: 0x18EB0, offset: 0x18EB0, size: 0x8, addend: 0x0, symName: __ZNSt3__114priority_queueIxNS_6vectorIxNS_9allocatorIxEEEENS_4lessIxEEEC2B8ue170006EOS7_, symObjAddr: 0x8794, symBinAddr: 0x100009EE0, symSize: 0x34 }
  - { offsetInCU: 0x18EE9, offset: 0x18EE9, size: 0x8, addend: 0x0, symName: __ZNSt3__16vectorIxNS_9allocatorIxEEEC2B8ue170006EOS3_, symObjAddr: 0x87C8, symBinAddr: 0x100009F14, symSize: 0xC4 }
  - { offsetInCU: 0x18F2A, offset: 0x18F2A, size: 0x8, addend: 0x0, symName: __ZNSt3__117__compressed_pairIPxNS_9allocatorIxEEEC1B8ue170006IDnS3_EEOT_OT0_, symObjAddr: 0x888C, symBinAddr: 0x100009FD8, symSize: 0x3C }
  - { offsetInCU: 0x18F82, offset: 0x18F82, size: 0x8, addend: 0x0, symName: __ZNSt3__16vectorIxNS_9allocatorIxEEE9__end_capB8ue170006Ev, symObjAddr: 0x88C8, symBinAddr: 0x10000A014, symSize: 0x28 }
  - { offsetInCU: 0x18FA8, offset: 0x18FA8, size: 0x8, addend: 0x0, symName: __ZNSt3__117__compressed_pairIPxNS_9allocatorIxEEEC2B8ue170006IDnS3_EEOT_OT0_, symObjAddr: 0x88F0, symBinAddr: 0x10000A03C, symSize: 0x44 }
  - { offsetInCU: 0x19000, offset: 0x19000, size: 0x8, addend: 0x0, symName: __ZNSt3__122__compressed_pair_elemINS_9allocatorIxEELi1ELb1EEC2B8ue170006IS2_vEEOT_, symObjAddr: 0x8934, symBinAddr: 0x10000A080, symSize: 0x18 }
  - { offsetInCU: 0x19042, offset: 0x19042, size: 0x8, addend: 0x0, symName: __ZNSt3__117__compressed_pairIPxNS_9allocatorIxEEE5firstB8ue170006Ev, symObjAddr: 0x894C, symBinAddr: 0x10000A098, symSize: 0x24 }
  - { offsetInCU: 0x19068, offset: 0x19068, size: 0x8, addend: 0x0, symName: __ZNSt3__122__compressed_pair_elemIPxLi0ELb0EE5__getB8ue170006Ev, symObjAddr: 0x8970, symBinAddr: 0x10000A0BC, symSize: 0x14 }
  - { offsetInCU: 0x19093, offset: 0x19093, size: 0x8, addend: 0x0, symName: __ZNSt3__119__to_address_helperINS_16reverse_iteratorIP5StockEEvE6__callB8ue170006ERKS4_, symObjAddr: 0x8984, symBinAddr: 0x10000A0D0, symSize: 0x38 }
  - { offsetInCU: 0x190B6, offset: 0x190B6, size: 0x8, addend: 0x0, symName: __ZNKSt3__116reverse_iteratorIP5StockEptB8ue170006Ev, symObjAddr: 0x89BC, symBinAddr: 0x10000A108, symSize: 0x24 }
  - { offsetInCU: 0x190DC, offset: 0x190DC, size: 0x8, addend: 0x0, symName: __ZNSt3__128__exception_guard_exceptionsINS_29_AllocatorDestroyRangeReverseINS_9allocatorI5StockEENS_16reverse_iteratorIPS3_EEEEED2B8ue170006Ev, symObjAddr: 0x89E0, symBinAddr: 0x10000A12C, symSize: 0x50 }
  - { offsetInCU: 0x19106, offset: 0x19106, size: 0x8, addend: 0x0, symName: __ZNKSt3__129_AllocatorDestroyRangeReverseINS_9allocatorI5StockEENS_16reverse_iteratorIPS2_EEEclB8ue170006Ev, symObjAddr: 0x8A30, symBinAddr: 0x10000A17C, symSize: 0xB4 }
  - { offsetInCU: 0x1912D, offset: 0x1912D, size: 0x8, addend: 0x0, symName: __ZNSt3__116reverse_iteratorINS0_IP5StockEEEC1B8ue170006ES3_, symObjAddr: 0x8B54, symBinAddr: 0x10000A2A0, symSize: 0x3C }
  - { offsetInCU: 0x19165, offset: 0x19165, size: 0x8, addend: 0x0, symName: __ZNSt3__116reverse_iteratorINS0_IP5StockEEEppB8ue170006Ev, symObjAddr: 0x8C14, symBinAddr: 0x10000A360, symSize: 0x30 }
  - { offsetInCU: 0x1918B, offset: 0x1918B, size: 0x8, addend: 0x0, symName: __ZNKSt3__116reverse_iteratorINS0_IP5StockEEE4baseB8ue170006Ev, symObjAddr: 0x8C44, symBinAddr: 0x10000A390, symSize: 0x24 }
  - { offsetInCU: 0x191B6, offset: 0x191B6, size: 0x8, addend: 0x0, symName: __ZNSt3__119__to_address_helperINS_16reverse_iteratorINS1_IP5StockEEEEvE6__callB8ue170006ERKS5_, symObjAddr: 0x8C68, symBinAddr: 0x10000A3B4, symSize: 0x38 }
  - { offsetInCU: 0x191D9, offset: 0x191D9, size: 0x8, addend: 0x0, symName: __ZNKSt3__116reverse_iteratorINS0_IP5StockEEEptB8ue170006Ev, symObjAddr: 0x8CA0, symBinAddr: 0x10000A3EC, symSize: 0x24 }
  - { offsetInCU: 0x191FF, offset: 0x191FF, size: 0x8, addend: 0x0, symName: __ZNKSt3__116reverse_iteratorINS0_IP5StockEEEdeB8ue170006Ev, symObjAddr: 0x8CC4, symBinAddr: 0x10000A410, symSize: 0x34 }
  - { offsetInCU: 0x19233, offset: 0x19233, size: 0x8, addend: 0x0, symName: __ZNSt3__116reverse_iteratorIP5StockEmmB8ue170006Ev, symObjAddr: 0x8CF8, symBinAddr: 0x10000A444, symSize: 0x20 }
  - { offsetInCU: 0x19259, offset: 0x19259, size: 0x8, addend: 0x0, symName: __ZNSt3__116reverse_iteratorINS0_IP5StockEEEC2B8ue170006ES3_, symObjAddr: 0x8D18, symBinAddr: 0x10000A464, symSize: 0x2C }
  - { offsetInCU: 0x19291, offset: 0x19291, size: 0x8, addend: 0x0, symName: __ZNSt3__116reverse_iteratorIP5StockEC2B8ue170006ES2_, symObjAddr: 0x8D44, symBinAddr: 0x10000A490, symSize: 0x28 }
  - { offsetInCU: 0x192C9, offset: 0x192C9, size: 0x8, addend: 0x0, symName: __ZNSt3__114__split_bufferI5StockRNS_9allocatorIS1_EEED2Ev, symObjAddr: 0x8D6C, symBinAddr: 0x10000A4B8, symSize: 0x8C }
  - { offsetInCU: 0x192F5, offset: 0x192F5, size: 0x8, addend: 0x0, symName: __ZNSt3__114__split_bufferI5StockRNS_9allocatorIS1_EEE5clearB8ue170006Ev, symObjAddr: 0x8DF8, symBinAddr: 0x10000A544, symSize: 0x28 }
  - { offsetInCU: 0x1931B, offset: 0x1931B, size: 0x8, addend: 0x0, symName: __ZNKSt3__114__split_bufferI5StockRNS_9allocatorIS1_EEE8capacityB8ue170006Ev, symObjAddr: 0x8E20, symBinAddr: 0x10000A56C, symSize: 0x40 }
  - { offsetInCU: 0x19341, offset: 0x19341, size: 0x8, addend: 0x0, symName: __ZNSt3__114__split_bufferI5StockRNS_9allocatorIS1_EEE17__destruct_at_endB8ue170006EPS1_, symObjAddr: 0x8E60, symBinAddr: 0x10000A5AC, symSize: 0x2C }
  - { offsetInCU: 0x19375, offset: 0x19375, size: 0x8, addend: 0x0, symName: __ZNSt3__114__split_bufferI5StockRNS_9allocatorIS1_EEE17__destruct_at_endB8ue170006EPS1_NS_17integral_constantIbLb0EEE, symObjAddr: 0x8E8C, symBinAddr: 0x10000A5D8, symSize: 0x80 }
  - { offsetInCU: 0x193B6, offset: 0x193B6, size: 0x8, addend: 0x0, symName: __ZNKSt3__114__split_bufferI5StockRNS_9allocatorIS1_EEE9__end_capB8ue170006Ev, symObjAddr: 0x8F0C, symBinAddr: 0x10000A658, symSize: 0x28 }
  - { offsetInCU: 0x193DC, offset: 0x193DC, size: 0x8, addend: 0x0, symName: __ZNKSt3__117__compressed_pairIP5StockRNS_9allocatorIS1_EEE5firstB8ue170006Ev, symObjAddr: 0x8F34, symBinAddr: 0x10000A680, symSize: 0x24 }
  - { offsetInCU: 0x19402, offset: 0x19402, size: 0x8, addend: 0x0, symName: __ZNKSt3__16vectorI5StockNS_9allocatorIS1_EEE17__annotate_shrinkB8ue170006Em, symObjAddr: 0x8F58, symBinAddr: 0x10000A6A4, symSize: 0xD0 }
  - { offsetInCU: 0x19437, offset: 0x19437, size: 0x8, addend: 0x0, symName: __ZNSt3__19basic_iosIcNS_11char_traitsIcEEEC2B8ue170006Ev, symObjAddr: 0x9028, symBinAddr: 0x10000A774, symSize: 0x44 }
  - { offsetInCU: 0x19461, offset: 0x19461, size: 0x8, addend: 0x0, symName: __ZNSt3__114basic_iostreamIcNS_11char_traitsIcEEEC2B8ue170006EPNS_15basic_streambufIcS2_EE, symObjAddr: 0x906C, symBinAddr: 0x10000A7B8, symSize: 0xAC }
  - { offsetInCU: 0x194A7, offset: 0x194A7, size: 0x8, addend: 0x0, symName: __ZNSt3__115basic_stringbufIcNS_11char_traitsIcEENS_9allocatorIcEEEC1B8ue170006Ej, symObjAddr: 0x9118, symBinAddr: 0x10000A864, symSize: 0x34 }
  - { offsetInCU: 0x194E0, offset: 0x194E0, size: 0x8, addend: 0x0, symName: __ZNSt3__18ios_baseC2B8ue170006Ev, symObjAddr: 0x914C, symBinAddr: 0x10000A898, symSize: 0x24 }
  - { offsetInCU: 0x1950A, offset: 0x1950A, size: 0x8, addend: 0x0, symName: __ZNSt3__113basic_istreamIcNS_11char_traitsIcEEEC2B8ue170006EPNS_15basic_streambufIcS2_EE, symObjAddr: 0x9170, symBinAddr: 0x10000A8BC, symSize: 0x64 }
  - { offsetInCU: 0x1954F, offset: 0x1954F, size: 0x8, addend: 0x0, symName: __ZNSt3__113basic_ostreamIcNS_11char_traitsIcEEEC2B8ue170006Ev, symObjAddr: 0x91D4, symBinAddr: 0x10000A920, symSize: 0x34 }
  - { offsetInCU: 0x19586, offset: 0x19586, size: 0x8, addend: 0x0, symName: __ZNSt3__19basic_iosIcNS_11char_traitsIcEEE4initB8ue170006EPNS_15basic_streambufIcS2_EE, symObjAddr: 0x9208, symBinAddr: 0x10000A954, symSize: 0x44 }
  - { offsetInCU: 0x195BD, offset: 0x195BD, size: 0x8, addend: 0x0, symName: __ZNSt3__115basic_stringbufIcNS_11char_traitsIcEENS_9allocatorIcEEEC2B8ue170006Ej, symObjAddr: 0x924C, symBinAddr: 0x10000A998, symSize: 0x60 }
  - { offsetInCU: 0x195F6, offset: 0x195F6, size: 0x8, addend: 0x0, symName: __ZNKSt3__19basic_iosIcNS_11char_traitsIcEEE4failB8ue170006Ev, symObjAddr: 0x92AC, symBinAddr: 0x10000A9F8, symSize: 0x28 }
  - { offsetInCU: 0x1961C, offset: 0x1961C, size: 0x8, addend: 0x0, symName: __ZNKSt3__18ios_base4failB8ue170006Ev, symObjAddr: 0x92D4, symBinAddr: 0x10000AA20, symSize: 0x28 }
  - { offsetInCU: 0x19644, offset: 0x19644, size: 0x8, addend: 0x0, symName: __ZNSt3__16vectorI5OrderNS_9allocatorIS1_EEE9push_backB8ue170006ERKS1_, symObjAddr: 0x92FC, symBinAddr: 0x10000AA48, symSize: 0x6C }
  - { offsetInCU: 0x1967B, offset: 0x1967B, size: 0x8, addend: 0x0, symName: __ZNSt3__16vectorI5OrderNS_9allocatorIS1_EEE5beginB8ue170006Ev, symObjAddr: 0x93A8, symBinAddr: 0x10000AAF4, symSize: 0x30 }
  - { offsetInCU: 0x196A3, offset: 0x196A3, size: 0x8, addend: 0x0, symName: __ZNSt3__16vectorI5OrderNS_9allocatorIS1_EEE3endB8ue170006Ev, symObjAddr: 0x93D8, symBinAddr: 0x10000AB24, symSize: 0x30 }
  - { offsetInCU: 0x196CB, offset: 0x196CB, size: 0x8, addend: 0x0, symName: __ZNSt3__16vectorI5OrderNS_9allocatorIS1_EEE22__construct_one_at_endB8ue170006IJRKS1_EEEvDpOT_, symObjAddr: 0x9408, symBinAddr: 0x10000AB54, symSize: 0x90 }
  - { offsetInCU: 0x1971A, offset: 0x1971A, size: 0x8, addend: 0x0, symName: __ZNSt3__16vectorI5OrderNS_9allocatorIS1_EEE21__push_back_slow_pathIRKS1_EEvOT_, symObjAddr: 0x9498, symBinAddr: 0x10000ABE4, symSize: 0xD8 }
  - { offsetInCU: 0x19791, offset: 0x19791, size: 0x8, addend: 0x0, symName: __ZNSt3__16vectorI5OrderNS_9allocatorIS1_EEE21_ConstructTransactionC1B8ue170006ERS4_m, symObjAddr: 0x9570, symBinAddr: 0x10000ACBC, symSize: 0x3C }
  - { offsetInCU: 0x197D9, offset: 0x197D9, size: 0x8, addend: 0x0, symName: __ZNSt3__116allocator_traitsINS_9allocatorI5OrderEEE9constructB8ue170006IS2_JRKS2_EvEEvRS3_PT_DpOT0_, symObjAddr: 0x95AC, symBinAddr: 0x10000ACF8, symSize: 0x34 }
  - { offsetInCU: 0x19830, offset: 0x19830, size: 0x8, addend: 0x0, symName: __ZNSt3__16vectorI5OrderNS_9allocatorIS1_EEE21_ConstructTransactionD1B8ue170006Ev, symObjAddr: 0x95E0, symBinAddr: 0x10000AD2C, symSize: 0x2C }
  - { offsetInCU: 0x1985A, offset: 0x1985A, size: 0x8, addend: 0x0, symName: __ZNSt3__16vectorI5OrderNS_9allocatorIS1_EEE21_ConstructTransactionC2B8ue170006ERS4_m, symObjAddr: 0x960C, symBinAddr: 0x10000AD58, symSize: 0x4C }
  - { offsetInCU: 0x198A2, offset: 0x198A2, size: 0x8, addend: 0x0, symName: __ZNSt3__19allocatorI5OrderE9constructB8ue170006IS1_JRKS1_EEEvPT_DpOT0_, symObjAddr: 0x9658, symBinAddr: 0x10000ADA4, symSize: 0x34 }
  - { offsetInCU: 0x198F8, offset: 0x198F8, size: 0x8, addend: 0x0, symName: __ZNSt3__16vectorI5OrderNS_9allocatorIS1_EEE21_ConstructTransactionD2B8ue170006Ev, symObjAddr: 0x968C, symBinAddr: 0x10000ADD8, symSize: 0x20 }
  - { offsetInCU: 0x19922, offset: 0x19922, size: 0x8, addend: 0x0, symName: __ZNKSt3__16vectorI5OrderNS_9allocatorIS1_EEE11__recommendB8ue170006Em, symObjAddr: 0x96AC, symBinAddr: 0x10000ADF8, symSize: 0xB4 }
  - { offsetInCU: 0x19977, offset: 0x19977, size: 0x8, addend: 0x0, symName: __ZNSt3__114__split_bufferI5OrderRNS_9allocatorIS1_EEEC1EmmS4_, symObjAddr: 0x9760, symBinAddr: 0x10000AEAC, symSize: 0x44 }
  - { offsetInCU: 0x199CD, offset: 0x199CD, size: 0x8, addend: 0x0, symName: __ZNSt3__114__split_bufferI5OrderRNS_9allocatorIS1_EEED1Ev, symObjAddr: 0x98B4, symBinAddr: 0x10000B000, symSize: 0x2C }
  - { offsetInCU: 0x199F9, offset: 0x199F9, size: 0x8, addend: 0x0, symName: __ZNKSt3__16vectorI5OrderNS_9allocatorIS1_EEE8max_sizeEv, symObjAddr: 0x98E0, symBinAddr: 0x10000B02C, symSize: 0x60 }
  - { offsetInCU: 0x19A21, offset: 0x19A21, size: 0x8, addend: 0x0, symName: __ZNKSt3__16vectorI5OrderNS_9allocatorIS1_EEE20__throw_length_errorB8ue170006Ev, symObjAddr: 0x9940, symBinAddr: 0x10000B08C, symSize: 0x1C }
  - { offsetInCU: 0x19A51, offset: 0x19A51, size: 0x8, addend: 0x0, symName: __ZNSt3__116allocator_traitsINS_9allocatorI5OrderEEE8max_sizeB8ue170006IS3_vEEmRKS3_, symObjAddr: 0x995C, symBinAddr: 0x10000B0A8, symSize: 0x24 }
  - { offsetInCU: 0x19A7F, offset: 0x19A7F, size: 0x8, addend: 0x0, symName: __ZNKSt3__16vectorI5OrderNS_9allocatorIS1_EEE7__allocB8ue170006Ev, symObjAddr: 0x9980, symBinAddr: 0x10000B0CC, symSize: 0x28 }
  - { offsetInCU: 0x19AA5, offset: 0x19AA5, size: 0x8, addend: 0x0, symName: __ZNKSt3__19allocatorI5OrderE8max_sizeB8ue170006Ev, symObjAddr: 0x99A8, symBinAddr: 0x10000B0F4, symSize: 0x20 }
  - { offsetInCU: 0x19ACB, offset: 0x19ACB, size: 0x8, addend: 0x0, symName: __ZNKSt3__117__compressed_pairIP5OrderNS_9allocatorIS1_EEE6secondB8ue170006Ev, symObjAddr: 0x99C8, symBinAddr: 0x10000B114, symSize: 0x24 }
  - { offsetInCU: 0x19AF1, offset: 0x19AF1, size: 0x8, addend: 0x0, symName: __ZNKSt3__122__compressed_pair_elemINS_9allocatorI5OrderEELi1ELb1EE5__getB8ue170006Ev, symObjAddr: 0x99EC, symBinAddr: 0x10000B138, symSize: 0x14 }
  - { offsetInCU: 0x19B17, offset: 0x19B17, size: 0x8, addend: 0x0, symName: __ZNSt3__114__split_bufferI5OrderRNS_9allocatorIS1_EEEC2EmmS4_, symObjAddr: 0x9A00, symBinAddr: 0x10000B14C, symSize: 0xE0 }
  - { offsetInCU: 0x19B8A, offset: 0x19B8A, size: 0x8, addend: 0x0, symName: __ZNSt3__117__compressed_pairIP5OrderRNS_9allocatorIS1_EEEC1B8ue170006IDnS5_EEOT_OT0_, symObjAddr: 0x9AE0, symBinAddr: 0x10000B22C, symSize: 0x3C }
  - { offsetInCU: 0x19BE2, offset: 0x19BE2, size: 0x8, addend: 0x0, symName: __ZNSt3__114__split_bufferI5OrderRNS_9allocatorIS1_EEE7__allocB8ue170006Ev, symObjAddr: 0x9B5C, symBinAddr: 0x10000B2A8, symSize: 0x28 }
  - { offsetInCU: 0x19C08, offset: 0x19C08, size: 0x8, addend: 0x0, symName: __ZNSt3__114__split_bufferI5OrderRNS_9allocatorIS1_EEE9__end_capB8ue170006Ev, symObjAddr: 0x9B84, symBinAddr: 0x10000B2D0, symSize: 0x28 }
  - { offsetInCU: 0x19C2E, offset: 0x19C2E, size: 0x8, addend: 0x0, symName: __ZNSt3__117__compressed_pairIP5OrderRNS_9allocatorIS1_EEEC2B8ue170006IDnS5_EEOT_OT0_, symObjAddr: 0x9BAC, symBinAddr: 0x10000B2F8, symSize: 0x48 }
  - { offsetInCU: 0x19C86, offset: 0x19C86, size: 0x8, addend: 0x0, symName: __ZNSt3__122__compressed_pair_elemIRNS_9allocatorI5OrderEELi1ELb0EEC2B8ue170006IS4_vEEOT_, symObjAddr: 0x9BF4, symBinAddr: 0x10000B340, symSize: 0x20 }
  - { offsetInCU: 0x19CC8, offset: 0x19CC8, size: 0x8, addend: 0x0, symName: __ZNSt3__19allocatorI5OrderE8allocateB8ue170006Em, symObjAddr: 0x9C14, symBinAddr: 0x10000B360, symSize: 0x5C }
  - { offsetInCU: 0x19CFC, offset: 0x19CFC, size: 0x8, addend: 0x0, symName: __ZNSt3__117__compressed_pairIP5OrderRNS_9allocatorIS1_EEE6secondB8ue170006Ev, symObjAddr: 0x9C70, symBinAddr: 0x10000B3BC, symSize: 0x28 }
  - { offsetInCU: 0x19D22, offset: 0x19D22, size: 0x8, addend: 0x0, symName: __ZNSt3__122__compressed_pair_elemIRNS_9allocatorI5OrderEELi1ELb0EE5__getB8ue170006Ev, symObjAddr: 0x9C98, symBinAddr: 0x10000B3E4, symSize: 0x18 }
  - { offsetInCU: 0x19D48, offset: 0x19D48, size: 0x8, addend: 0x0, symName: __ZNSt3__117__compressed_pairIP5OrderRNS_9allocatorIS1_EEE5firstB8ue170006Ev, symObjAddr: 0x9CB0, symBinAddr: 0x10000B3FC, symSize: 0x24 }
  - { offsetInCU: 0x19D6E, offset: 0x19D6E, size: 0x8, addend: 0x0, symName: __ZNSt3__116reverse_iteratorIP5OrderEC1B8ue170006ES2_, symObjAddr: 0x9D4C, symBinAddr: 0x10000B498, symSize: 0x34 }
  - { offsetInCU: 0x19DA6, offset: 0x19DA6, size: 0x8, addend: 0x0, symName: __ZNKSt3__116reverse_iteratorIP5OrderE4baseB8ue170006Ev, symObjAddr: 0x9D80, symBinAddr: 0x10000B4CC, symSize: 0x18 }
  - { offsetInCU: 0x19DCC, offset: 0x19DCC, size: 0x8, addend: 0x0, symName: __ZNKSt3__16vectorI5OrderNS_9allocatorIS1_EEE14__annotate_newB8ue170006Em, symObjAddr: 0x9DD4, symBinAddr: 0x10000B520, symSize: 0xC8 }
  - { offsetInCU: 0x19E1B, offset: 0x19E1B, size: 0x8, addend: 0x0, symName: __ZNKSt3__111__move_loopINS_17_ClassicAlgPolicyEEclB8ue170006INS_16reverse_iteratorIP5OrderEES7_S7_EENS_4pairIT_T1_EES9_T0_SA_, symObjAddr: 0xA18C, symBinAddr: 0x10000B8D8, symSize: 0x9C }
  - { offsetInCU: 0x19E8C, offset: 0x19E8C, size: 0x8, addend: 0x0, symName: __ZNSt3__18_IterOpsINS_17_ClassicAlgPolicyEE11__iter_moveB8ue170006IRNS_16reverse_iteratorIP5OrderEEEENS_9enable_ifIXsr12is_referenceIDTdeclsr3stdE7declvalIRT_EEEEE5valueEDTclsr3stdE4movedeclsr3stdE7declvalISB_EEEEE4typeEOSA_, symObjAddr: 0xA3BC, symBinAddr: 0x10000BB08, symSize: 0x28 }
  - { offsetInCU: 0x19EB8, offset: 0x19EB8, size: 0x8, addend: 0x0, symName: __ZNKSt3__116reverse_iteratorIP5OrderEdeB8ue170006Ev, symObjAddr: 0xA3E4, symBinAddr: 0x10000BB30, symSize: 0x28 }
  - { offsetInCU: 0x19EEC, offset: 0x19EEC, size: 0x8, addend: 0x0, symName: __ZNSt3__116reverse_iteratorIP5OrderEppB8ue170006Ev, symObjAddr: 0xA40C, symBinAddr: 0x10000BB58, symSize: 0x20 }
  - { offsetInCU: 0x19F12, offset: 0x19F12, size: 0x8, addend: 0x0, symName: __ZNSt3__18_IterOpsINS_17_ClassicAlgPolicyEE25__validate_iter_referenceB8ue170006IRNS_16reverse_iteratorIP5OrderEEEEvv, symObjAddr: 0xA42C, symBinAddr: 0x10000BB78, symSize: 0x4 }
  - { offsetInCU: 0x19F30, offset: 0x19F30, size: 0x8, addend: 0x0, symName: __ZNSt3__118__unwrap_iter_implINS_16reverse_iteratorIP5OrderEELb0EE8__unwrapB8ue170006ES4_, symObjAddr: 0xA430, symBinAddr: 0x10000BB7C, symSize: 0x24 }
  - { offsetInCU: 0x19F59, offset: 0x19F59, size: 0x8, addend: 0x0, symName: __ZNSt3__14pairINS_16reverse_iteratorIP5OrderEES4_EC1B8ue170006IS4_S4_LPv0EEEOT_OT0_, symObjAddr: 0xA454, symBinAddr: 0x10000BBA0, symSize: 0x3C }
  - { offsetInCU: 0x19FB7, offset: 0x19FB7, size: 0x8, addend: 0x0, symName: __ZNSt3__14pairINS_16reverse_iteratorIP5OrderEES4_EC2B8ue170006IS4_S4_LPv0EEEOT_OT0_, symObjAddr: 0xA490, symBinAddr: 0x10000BBDC, symSize: 0x34 }
  - { offsetInCU: 0x1A015, offset: 0x1A015, size: 0x8, addend: 0x0, symName: __ZNSt3__118__unwrap_iter_implINS_16reverse_iteratorIP5OrderEELb0EE8__rewrapB8ue170006ES4_S4_, symObjAddr: 0xA4C4, symBinAddr: 0x10000BC10, symSize: 0x2C }
  - { offsetInCU: 0x1A043, offset: 0x1A043, size: 0x8, addend: 0x0, symName: __ZNSt3__116reverse_iteratorIP5OrderEC2B8ue170006ES2_, symObjAddr: 0xA4F0, symBinAddr: 0x10000BC3C, symSize: 0x28 }
  - { offsetInCU: 0x1A07B, offset: 0x1A07B, size: 0x8, addend: 0x0, symName: __ZNSt3__114__split_bufferI5OrderRNS_9allocatorIS1_EEED2Ev, symObjAddr: 0xA518, symBinAddr: 0x10000BC64, symSize: 0x8C }
  - { offsetInCU: 0x1A0A7, offset: 0x1A0A7, size: 0x8, addend: 0x0, symName: __ZNSt3__114__split_bufferI5OrderRNS_9allocatorIS1_EEE5clearB8ue170006Ev, symObjAddr: 0xA5A4, symBinAddr: 0x10000BCF0, symSize: 0x28 }
  - { offsetInCU: 0x1A0CD, offset: 0x1A0CD, size: 0x8, addend: 0x0, symName: __ZNKSt3__114__split_bufferI5OrderRNS_9allocatorIS1_EEE8capacityB8ue170006Ev, symObjAddr: 0xA5CC, symBinAddr: 0x10000BD18, symSize: 0x40 }
  - { offsetInCU: 0x1A0F3, offset: 0x1A0F3, size: 0x8, addend: 0x0, symName: __ZNSt3__114__split_bufferI5OrderRNS_9allocatorIS1_EEE17__destruct_at_endB8ue170006EPS1_, symObjAddr: 0xA60C, symBinAddr: 0x10000BD58, symSize: 0x2C }
  - { offsetInCU: 0x1A127, offset: 0x1A127, size: 0x8, addend: 0x0, symName: __ZNSt3__114__split_bufferI5OrderRNS_9allocatorIS1_EEE17__destruct_at_endB8ue170006EPS1_NS_17integral_constantIbLb0EEE, symObjAddr: 0xA638, symBinAddr: 0x10000BD84, symSize: 0x80 }
  - { offsetInCU: 0x1A168, offset: 0x1A168, size: 0x8, addend: 0x0, symName: __ZNKSt3__114__split_bufferI5OrderRNS_9allocatorIS1_EEE9__end_capB8ue170006Ev, symObjAddr: 0xA6B8, symBinAddr: 0x10000BE04, symSize: 0x28 }
  - { offsetInCU: 0x1A18E, offset: 0x1A18E, size: 0x8, addend: 0x0, symName: __ZNKSt3__117__compressed_pairIP5OrderRNS_9allocatorIS1_EEE5firstB8ue170006Ev, symObjAddr: 0xA6E0, symBinAddr: 0x10000BE2C, symSize: 0x24 }
  - { offsetInCU: 0x1A1B4, offset: 0x1A1B4, size: 0x8, addend: 0x0, symName: __ZNKSt3__111__wrap_iterIP5OrderE4baseB8ue170006Ev, symObjAddr: 0xA914, symBinAddr: 0x10000C060, symSize: 0x18 }
  - { offsetInCU: 0x1A1DA, offset: 0x1A1DA, size: 0x8, addend: 0x0, symName: __ZNKSt3__111__wrap_iterIP5OrderEplB8ue170006El, symObjAddr: 0xA92C, symBinAddr: 0x10000C078, symSize: 0x3C }
  - { offsetInCU: 0x1A21C, offset: 0x1A21C, size: 0x8, addend: 0x0, symName: __ZNK13buyer_functorclERK5OrderS2_, symObjAddr: 0xA968, symBinAddr: 0x10000C0B4, symSize: 0x90 }
  - { offsetInCU: 0x1A25E, offset: 0x1A25E, size: 0x8, addend: 0x0, symName: __ZNKSt3__111__wrap_iterIP5OrderEdeB8ue170006Ev, symObjAddr: 0xA9F8, symBinAddr: 0x10000C144, symSize: 0x18 }
  - { offsetInCU: 0x1A284, offset: 0x1A284, size: 0x8, addend: 0x0, symName: __ZNSt3__111__wrap_iterIP5OrderEmmB8ue170006Ev, symObjAddr: 0xAA10, symBinAddr: 0x10000C15C, symSize: 0x20 }
  - { offsetInCU: 0x1A2AA, offset: 0x1A2AA, size: 0x8, addend: 0x0, symName: __ZNSt3__18_IterOpsINS_17_ClassicAlgPolicyEE11__iter_moveB8ue170006IRNS_11__wrap_iterIP5OrderEEEENS_9enable_ifIXsr12is_referenceIDTdeclsr3stdE7declvalIRT_EEEEE5valueEDTclsr3stdE4movedeclsr3stdE7declvalISB_EEEEE4typeEOSA_, symObjAddr: 0xAA30, symBinAddr: 0x10000C17C, symSize: 0x28 }
  - { offsetInCU: 0x1A2D6, offset: 0x1A2D6, size: 0x8, addend: 0x0, symName: __ZNSt3__111__wrap_iterIP5OrderEpLB8ue170006El, symObjAddr: 0xAA58, symBinAddr: 0x10000C1A4, symSize: 0x30 }
  - { offsetInCU: 0x1A30A, offset: 0x1A30A, size: 0x8, addend: 0x0, symName: __ZNSt3__18_IterOpsINS_17_ClassicAlgPolicyEE25__validate_iter_referenceB8ue170006IRNS_11__wrap_iterIP5OrderEEEEvv, symObjAddr: 0xAA88, symBinAddr: 0x10000C1D4, symSize: 0x4 }
  - { offsetInCU: 0x1A328, offset: 0x1A328, size: 0x8, addend: 0x0, symName: __ZNSt3__16vectorI5OrderNS_9allocatorIS1_EEE11__make_iterB8ue170006EPS1_, symObjAddr: 0xAA8C, symBinAddr: 0x10000C1D8, symSize: 0x30 }
  - { offsetInCU: 0x1A35D, offset: 0x1A35D, size: 0x8, addend: 0x0, symName: __ZNSt3__111__wrap_iterIP5OrderEC1B8ue170006ES2_, symObjAddr: 0xAABC, symBinAddr: 0x10000C208, symSize: 0x34 }
  - { offsetInCU: 0x1A395, offset: 0x1A395, size: 0x8, addend: 0x0, symName: __ZNSt3__111__wrap_iterIP5OrderEC2B8ue170006ES2_, symObjAddr: 0xAAF0, symBinAddr: 0x10000C23C, symSize: 0x20 }
  - { offsetInCU: 0x1A3CD, offset: 0x1A3CD, size: 0x8, addend: 0x0, symName: __ZNK14seller_functorclERK5OrderS2_, symObjAddr: 0xAD18, symBinAddr: 0x10000C464, symSize: 0x90 }
  - { offsetInCU: 0x1A40F, offset: 0x1A40F, size: 0x8, addend: 0x0, symName: __ZNKSt3__16vectorI5OrderNS_9allocatorIS1_EEE5emptyB8ue170006Ev, symObjAddr: 0xADA8, symBinAddr: 0x10000C4F4, symSize: 0x28 }
  - { offsetInCU: 0x1A435, offset: 0x1A435, size: 0x8, addend: 0x0, symName: __ZNKSt3__16vectorI5OrderNS_9allocatorIS1_EEE5frontB8ue170006Ev, symObjAddr: 0xADD0, symBinAddr: 0x10000C51C, symSize: 0x18 }
  - { offsetInCU: 0x1A45B, offset: 0x1A45B, size: 0x8, addend: 0x0, symName: __ZNSt3__16vectorI5OrderNS_9allocatorIS1_EEE8pop_backEv, symObjAddr: 0xAE40, symBinAddr: 0x10000C58C, symSize: 0x2C }
  - { offsetInCU: 0x1A483, offset: 0x1A483, size: 0x8, addend: 0x0, symName: __ZNSt3__111__wrap_iterIP5OrderEppB8ue170006Ev, symObjAddr: 0xB140, symBinAddr: 0x10000C88C, symSize: 0x20 }
  - { offsetInCU: 0x1A4A9, offset: 0x1A4A9, size: 0x8, addend: 0x0, symName: __ZNSt3__16vectorI5OrderNS_9allocatorIS1_EEE17__destruct_at_endB8ue170006EPS1_, symObjAddr: 0xB160, symBinAddr: 0x10000C8AC, symSize: 0x4C }
  - { offsetInCU: 0x1A4ED, offset: 0x1A4ED, size: 0x8, addend: 0x0, symName: __ZNKSt3__16vectorI5OrderNS_9allocatorIS1_EEE17__annotate_shrinkB8ue170006Em, symObjAddr: 0xB1AC, symBinAddr: 0x10000C8F8, symSize: 0xD0 }
  - { offsetInCU: 0x1A522, offset: 0x1A522, size: 0x8, addend: 0x0, symName: __ZNSt3__16vectorIxNS_9allocatorIxEEE22__construct_one_at_endB8ue170006IJRKxEEEvDpOT_, symObjAddr: 0xB560, symBinAddr: 0x10000CCAC, symSize: 0x90 }
  - { offsetInCU: 0x1A571, offset: 0x1A571, size: 0x8, addend: 0x0, symName: __ZNSt3__16vectorIxNS_9allocatorIxEEE21__push_back_slow_pathIRKxEEvOT_, symObjAddr: 0xB5F0, symBinAddr: 0x10000CD3C, symSize: 0xD8 }
  - { offsetInCU: 0x1A5E8, offset: 0x1A5E8, size: 0x8, addend: 0x0, symName: __ZNSt3__16vectorIxNS_9allocatorIxEEE21_ConstructTransactionC1B8ue170006ERS3_m, symObjAddr: 0xB6C8, symBinAddr: 0x10000CE14, symSize: 0x3C }
  - { offsetInCU: 0x1A630, offset: 0x1A630, size: 0x8, addend: 0x0, symName: __ZNSt3__116allocator_traitsINS_9allocatorIxEEE9constructB8ue170006IxJRKxEvEEvRS2_PT_DpOT0_, symObjAddr: 0xB704, symBinAddr: 0x10000CE50, symSize: 0x34 }
  - { offsetInCU: 0x1A687, offset: 0x1A687, size: 0x8, addend: 0x0, symName: __ZNSt3__16vectorIxNS_9allocatorIxEEE21_ConstructTransactionD1B8ue170006Ev, symObjAddr: 0xB738, symBinAddr: 0x10000CE84, symSize: 0x2C }
  - { offsetInCU: 0x1A6B1, offset: 0x1A6B1, size: 0x8, addend: 0x0, symName: __ZNSt3__16vectorIxNS_9allocatorIxEEE21_ConstructTransactionC2B8ue170006ERS3_m, symObjAddr: 0xB764, symBinAddr: 0x10000CEB0, symSize: 0x44 }
  - { offsetInCU: 0x1A6F9, offset: 0x1A6F9, size: 0x8, addend: 0x0, symName: __ZNSt3__19allocatorIxE9constructB8ue170006IxJRKxEEEvPT_DpOT0_, symObjAddr: 0xB7A8, symBinAddr: 0x10000CEF4, symSize: 0x28 }
  - { offsetInCU: 0x1A74F, offset: 0x1A74F, size: 0x8, addend: 0x0, symName: __ZNSt3__16vectorIxNS_9allocatorIxEEE21_ConstructTransactionD2B8ue170006Ev, symObjAddr: 0xB7D0, symBinAddr: 0x10000CF1C, symSize: 0x20 }
  - { offsetInCU: 0x1A779, offset: 0x1A779, size: 0x8, addend: 0x0, symName: __ZNKSt3__16vectorIxNS_9allocatorIxEEE11__recommendB8ue170006Em, symObjAddr: 0xB7F0, symBinAddr: 0x10000CF3C, symSize: 0xB4 }
  - { offsetInCU: 0x1A7CE, offset: 0x1A7CE, size: 0x8, addend: 0x0, symName: __ZNSt3__114__split_bufferIxRNS_9allocatorIxEEEC1EmmS3_, symObjAddr: 0xB8A4, symBinAddr: 0x10000CFF0, symSize: 0x44 }
  - { offsetInCU: 0x1A824, offset: 0x1A824, size: 0x8, addend: 0x0, symName: __ZNSt3__114__split_bufferIxRNS_9allocatorIxEEED1Ev, symObjAddr: 0xB9F8, symBinAddr: 0x10000D144, symSize: 0x2C }
  - { offsetInCU: 0x1A850, offset: 0x1A850, size: 0x8, addend: 0x0, symName: __ZNKSt3__16vectorIxNS_9allocatorIxEEE8max_sizeEv, symObjAddr: 0xBA24, symBinAddr: 0x10000D170, symSize: 0x60 }
  - { offsetInCU: 0x1A878, offset: 0x1A878, size: 0x8, addend: 0x0, symName: __ZNKSt3__16vectorIxNS_9allocatorIxEEE20__throw_length_errorB8ue170006Ev, symObjAddr: 0xBA84, symBinAddr: 0x10000D1D0, symSize: 0x1C }
  - { offsetInCU: 0x1A8A8, offset: 0x1A8A8, size: 0x8, addend: 0x0, symName: __ZNSt3__116allocator_traitsINS_9allocatorIxEEE8max_sizeB8ue170006IS2_vEEmRKS2_, symObjAddr: 0xBAA0, symBinAddr: 0x10000D1EC, symSize: 0x24 }
  - { offsetInCU: 0x1A8D6, offset: 0x1A8D6, size: 0x8, addend: 0x0, symName: __ZNKSt3__16vectorIxNS_9allocatorIxEEE7__allocB8ue170006Ev, symObjAddr: 0xBAC4, symBinAddr: 0x10000D210, symSize: 0x28 }
  - { offsetInCU: 0x1A8FC, offset: 0x1A8FC, size: 0x8, addend: 0x0, symName: __ZNKSt3__19allocatorIxE8max_sizeB8ue170006Ev, symObjAddr: 0xBAEC, symBinAddr: 0x10000D238, symSize: 0x14 }
  - { offsetInCU: 0x1A922, offset: 0x1A922, size: 0x8, addend: 0x0, symName: __ZNKSt3__117__compressed_pairIPxNS_9allocatorIxEEE6secondB8ue170006Ev, symObjAddr: 0xBB00, symBinAddr: 0x10000D24C, symSize: 0x24 }
  - { offsetInCU: 0x1A948, offset: 0x1A948, size: 0x8, addend: 0x0, symName: __ZNKSt3__122__compressed_pair_elemINS_9allocatorIxEELi1ELb1EE5__getB8ue170006Ev, symObjAddr: 0xBB24, symBinAddr: 0x10000D270, symSize: 0x14 }
  - { offsetInCU: 0x1A96E, offset: 0x1A96E, size: 0x8, addend: 0x0, symName: __ZNSt3__114__split_bufferIxRNS_9allocatorIxEEEC2EmmS3_, symObjAddr: 0xBB38, symBinAddr: 0x10000D284, symSize: 0xD4 }
  - { offsetInCU: 0x1A9E1, offset: 0x1A9E1, size: 0x8, addend: 0x0, symName: __ZNSt3__117__compressed_pairIPxRNS_9allocatorIxEEEC1B8ue170006IDnS4_EEOT_OT0_, symObjAddr: 0xBC0C, symBinAddr: 0x10000D358, symSize: 0x3C }
  - { offsetInCU: 0x1AA39, offset: 0x1AA39, size: 0x8, addend: 0x0, symName: __ZNSt3__114__split_bufferIxRNS_9allocatorIxEEE7__allocB8ue170006Ev, symObjAddr: 0xBC88, symBinAddr: 0x10000D3D4, symSize: 0x28 }
  - { offsetInCU: 0x1AA5F, offset: 0x1AA5F, size: 0x8, addend: 0x0, symName: __ZNSt3__114__split_bufferIxRNS_9allocatorIxEEE9__end_capB8ue170006Ev, symObjAddr: 0xBCB0, symBinAddr: 0x10000D3FC, symSize: 0x28 }
  - { offsetInCU: 0x1AA85, offset: 0x1AA85, size: 0x8, addend: 0x0, symName: __ZNSt3__117__compressed_pairIPxRNS_9allocatorIxEEEC2B8ue170006IDnS4_EEOT_OT0_, symObjAddr: 0xBCD8, symBinAddr: 0x10000D424, symSize: 0x48 }
  - { offsetInCU: 0x1AADD, offset: 0x1AADD, size: 0x8, addend: 0x0, symName: __ZNSt3__122__compressed_pair_elemIRNS_9allocatorIxEELi1ELb0EEC2B8ue170006IS3_vEEOT_, symObjAddr: 0xBD20, symBinAddr: 0x10000D46C, symSize: 0x20 }
  - { offsetInCU: 0x1AB1F, offset: 0x1AB1F, size: 0x8, addend: 0x0, symName: __ZNSt3__19allocatorIxE8allocateB8ue170006Em, symObjAddr: 0xBD40, symBinAddr: 0x10000D48C, symSize: 0x58 }
  - { offsetInCU: 0x1AB53, offset: 0x1AB53, size: 0x8, addend: 0x0, symName: __ZNSt3__117__compressed_pairIPxRNS_9allocatorIxEEE6secondB8ue170006Ev, symObjAddr: 0xBD98, symBinAddr: 0x10000D4E4, symSize: 0x28 }
  - { offsetInCU: 0x1AB79, offset: 0x1AB79, size: 0x8, addend: 0x0, symName: __ZNSt3__122__compressed_pair_elemIRNS_9allocatorIxEELi1ELb0EE5__getB8ue170006Ev, symObjAddr: 0xBDC0, symBinAddr: 0x10000D50C, symSize: 0x18 }
  - { offsetInCU: 0x1AB9F, offset: 0x1AB9F, size: 0x8, addend: 0x0, symName: __ZNSt3__117__compressed_pairIPxRNS_9allocatorIxEEE5firstB8ue170006Ev, symObjAddr: 0xBDD8, symBinAddr: 0x10000D524, symSize: 0x24 }
  - { offsetInCU: 0x1ABC5, offset: 0x1ABC5, size: 0x8, addend: 0x0, symName: __ZNSt3__116reverse_iteratorIPxEC1B8ue170006ES1_, symObjAddr: 0xBE74, symBinAddr: 0x10000D5C0, symSize: 0x34 }
  - { offsetInCU: 0x1ABFD, offset: 0x1ABFD, size: 0x8, addend: 0x0, symName: __ZNKSt3__116reverse_iteratorIPxE4baseB8ue170006Ev, symObjAddr: 0xBEA8, symBinAddr: 0x10000D5F4, symSize: 0x18 }
  - { offsetInCU: 0x1AC23, offset: 0x1AC23, size: 0x8, addend: 0x0, symName: __ZNKSt3__16vectorIxNS_9allocatorIxEEE14__annotate_newB8ue170006Em, symObjAddr: 0xBEFC, symBinAddr: 0x10000D648, symSize: 0xAC }
  - { offsetInCU: 0x1AC72, offset: 0x1AC72, size: 0x8, addend: 0x0, symName: __ZNKSt3__111__move_loopINS_17_ClassicAlgPolicyEEclB8ue170006INS_16reverse_iteratorIPxEES6_S6_EENS_4pairIT_T1_EES8_T0_S9_, symObjAddr: 0xC298, symBinAddr: 0x10000D9E4, symSize: 0xA0 }
  - { offsetInCU: 0x1ACE3, offset: 0x1ACE3, size: 0x8, addend: 0x0, symName: __ZNSt3__18_IterOpsINS_17_ClassicAlgPolicyEE11__iter_moveB8ue170006IRNS_16reverse_iteratorIPxEEEENS_9enable_ifIXsr12is_referenceIDTdeclsr3stdE7declvalIRT_EEEEE5valueEDTclsr3stdE4movedeclsr3stdE7declvalISA_EEEEE4typeEOS9_, symObjAddr: 0xC4CC, symBinAddr: 0x10000DC18, symSize: 0x28 }
  - { offsetInCU: 0x1AD0F, offset: 0x1AD0F, size: 0x8, addend: 0x0, symName: __ZNKSt3__116reverse_iteratorIPxEdeB8ue170006Ev, symObjAddr: 0xC4F4, symBinAddr: 0x10000DC40, symSize: 0x28 }
  - { offsetInCU: 0x1AD43, offset: 0x1AD43, size: 0x8, addend: 0x0, symName: __ZNSt3__116reverse_iteratorIPxEppB8ue170006Ev, symObjAddr: 0xC51C, symBinAddr: 0x10000DC68, symSize: 0x20 }
  - { offsetInCU: 0x1AD69, offset: 0x1AD69, size: 0x8, addend: 0x0, symName: __ZNSt3__18_IterOpsINS_17_ClassicAlgPolicyEE25__validate_iter_referenceB8ue170006IRNS_16reverse_iteratorIPxEEEEvv, symObjAddr: 0xC53C, symBinAddr: 0x10000DC88, symSize: 0x4 }
  - { offsetInCU: 0x1AD87, offset: 0x1AD87, size: 0x8, addend: 0x0, symName: __ZNSt3__118__unwrap_iter_implINS_16reverse_iteratorIPxEELb0EE8__unwrapB8ue170006ES3_, symObjAddr: 0xC540, symBinAddr: 0x10000DC8C, symSize: 0x24 }
  - { offsetInCU: 0x1ADB0, offset: 0x1ADB0, size: 0x8, addend: 0x0, symName: __ZNSt3__14pairINS_16reverse_iteratorIPxEES3_EC1B8ue170006IS3_S3_LPv0EEEOT_OT0_, symObjAddr: 0xC564, symBinAddr: 0x10000DCB0, symSize: 0x3C }
  - { offsetInCU: 0x1AE0E, offset: 0x1AE0E, size: 0x8, addend: 0x0, symName: __ZNSt3__14pairINS_16reverse_iteratorIPxEES3_EC2B8ue170006IS3_S3_LPv0EEEOT_OT0_, symObjAddr: 0xC5A0, symBinAddr: 0x10000DCEC, symSize: 0x34 }
  - { offsetInCU: 0x1AE6C, offset: 0x1AE6C, size: 0x8, addend: 0x0, symName: __ZNSt3__118__unwrap_iter_implINS_16reverse_iteratorIPxEELb0EE8__rewrapB8ue170006ES3_S3_, symObjAddr: 0xC5D4, symBinAddr: 0x10000DD20, symSize: 0x2C }
  - { offsetInCU: 0x1AE9A, offset: 0x1AE9A, size: 0x8, addend: 0x0, symName: __ZNSt3__116reverse_iteratorIPxEC2B8ue170006ES1_, symObjAddr: 0xC600, symBinAddr: 0x10000DD4C, symSize: 0x28 }
  - { offsetInCU: 0x1AED2, offset: 0x1AED2, size: 0x8, addend: 0x0, symName: __ZNSt3__114__split_bufferIxRNS_9allocatorIxEEED2Ev, symObjAddr: 0xC628, symBinAddr: 0x10000DD74, symSize: 0x8C }
  - { offsetInCU: 0x1AEFE, offset: 0x1AEFE, size: 0x8, addend: 0x0, symName: __ZNSt3__114__split_bufferIxRNS_9allocatorIxEEE5clearB8ue170006Ev, symObjAddr: 0xC6B4, symBinAddr: 0x10000DE00, symSize: 0x28 }
  - { offsetInCU: 0x1AF24, offset: 0x1AF24, size: 0x8, addend: 0x0, symName: __ZNKSt3__114__split_bufferIxRNS_9allocatorIxEEE8capacityB8ue170006Ev, symObjAddr: 0xC6DC, symBinAddr: 0x10000DE28, symSize: 0x40 }
  - { offsetInCU: 0x1AF4A, offset: 0x1AF4A, size: 0x8, addend: 0x0, symName: __ZNSt3__114__split_bufferIxRNS_9allocatorIxEEE17__destruct_at_endB8ue170006EPx, symObjAddr: 0xC71C, symBinAddr: 0x10000DE68, symSize: 0x2C }
  - { offsetInCU: 0x1AF7E, offset: 0x1AF7E, size: 0x8, addend: 0x0, symName: __ZNSt3__114__split_bufferIxRNS_9allocatorIxEEE17__destruct_at_endB8ue170006EPxNS_17integral_constantIbLb0EEE, symObjAddr: 0xC748, symBinAddr: 0x10000DE94, symSize: 0x80 }
  - { offsetInCU: 0x1AFBF, offset: 0x1AFBF, size: 0x8, addend: 0x0, symName: __ZNKSt3__114__split_bufferIxRNS_9allocatorIxEEE9__end_capB8ue170006Ev, symObjAddr: 0xC7C8, symBinAddr: 0x10000DF14, symSize: 0x28 }
  - { offsetInCU: 0x1AFE5, offset: 0x1AFE5, size: 0x8, addend: 0x0, symName: __ZNKSt3__117__compressed_pairIPxRNS_9allocatorIxEEE5firstB8ue170006Ev, symObjAddr: 0xC7F0, symBinAddr: 0x10000DF3C, symSize: 0x24 }
  - { offsetInCU: 0x1B00B, offset: 0x1B00B, size: 0x8, addend: 0x0, symName: __ZNKSt3__16vectorIxNS_9allocatorIxEEE5frontB8ue170006Ev, symObjAddr: 0xC814, symBinAddr: 0x10000DF60, symSize: 0x18 }
  - { offsetInCU: 0x1B031, offset: 0x1B031, size: 0x8, addend: 0x0, symName: __ZNSt3__16vectorIxNS_9allocatorIxEEE5beginB8ue170006Ev, symObjAddr: 0xC86C, symBinAddr: 0x10000DFB8, symSize: 0x30 }
  - { offsetInCU: 0x1B059, offset: 0x1B059, size: 0x8, addend: 0x0, symName: __ZNSt3__16vectorIxNS_9allocatorIxEEE3endB8ue170006Ev, symObjAddr: 0xC89C, symBinAddr: 0x10000DFE8, symSize: 0x30 }
  - { offsetInCU: 0x1B081, offset: 0x1B081, size: 0x8, addend: 0x0, symName: __ZNKSt3__111__wrap_iterIPxE4baseB8ue170006Ev, symObjAddr: 0xCAD8, symBinAddr: 0x10000E224, symSize: 0x18 }
  - { offsetInCU: 0x1B0A7, offset: 0x1B0A7, size: 0x8, addend: 0x0, symName: __ZNKSt3__111__wrap_iterIPxEplB8ue170006El, symObjAddr: 0xCAF0, symBinAddr: 0x10000E23C, symSize: 0x3C }
  - { offsetInCU: 0x1B0E9, offset: 0x1B0E9, size: 0x8, addend: 0x0, symName: __ZNKSt3__14lessIxEclB8ue170006ERKxS3_, symObjAddr: 0xCB2C, symBinAddr: 0x10000E278, symSize: 0x34 }
  - { offsetInCU: 0x1B12D, offset: 0x1B12D, size: 0x8, addend: 0x0, symName: __ZNKSt3__111__wrap_iterIPxEdeB8ue170006Ev, symObjAddr: 0xCB60, symBinAddr: 0x10000E2AC, symSize: 0x18 }
  - { offsetInCU: 0x1B153, offset: 0x1B153, size: 0x8, addend: 0x0, symName: __ZNSt3__111__wrap_iterIPxEmmB8ue170006Ev, symObjAddr: 0xCB78, symBinAddr: 0x10000E2C4, symSize: 0x20 }
  - { offsetInCU: 0x1B179, offset: 0x1B179, size: 0x8, addend: 0x0, symName: __ZNSt3__18_IterOpsINS_17_ClassicAlgPolicyEE11__iter_moveB8ue170006IRNS_11__wrap_iterIPxEEEENS_9enable_ifIXsr12is_referenceIDTdeclsr3stdE7declvalIRT_EEEEE5valueEDTclsr3stdE4movedeclsr3stdE7declvalISA_EEEEE4typeEOS9_, symObjAddr: 0xCB98, symBinAddr: 0x10000E2E4, symSize: 0x28 }
  - { offsetInCU: 0x1B1A5, offset: 0x1B1A5, size: 0x8, addend: 0x0, symName: __ZNSt3__111__wrap_iterIPxEpLB8ue170006El, symObjAddr: 0xCBC0, symBinAddr: 0x10000E30C, symSize: 0x28 }
  - { offsetInCU: 0x1B1D9, offset: 0x1B1D9, size: 0x8, addend: 0x0, symName: __ZNSt3__18_IterOpsINS_17_ClassicAlgPolicyEE25__validate_iter_referenceB8ue170006IRNS_11__wrap_iterIPxEEEEvv, symObjAddr: 0xCBE8, symBinAddr: 0x10000E334, symSize: 0x4 }
  - { offsetInCU: 0x1B1F7, offset: 0x1B1F7, size: 0x8, addend: 0x0, symName: __ZNSt3__16vectorIxNS_9allocatorIxEEE11__make_iterB8ue170006EPx, symObjAddr: 0xCBEC, symBinAddr: 0x10000E338, symSize: 0x30 }
  - { offsetInCU: 0x1B22C, offset: 0x1B22C, size: 0x8, addend: 0x0, symName: __ZNSt3__111__wrap_iterIPxEC1B8ue170006ES1_, symObjAddr: 0xCC1C, symBinAddr: 0x10000E368, symSize: 0x34 }
  - { offsetInCU: 0x1B264, offset: 0x1B264, size: 0x8, addend: 0x0, symName: __ZNSt3__111__wrap_iterIPxEC2B8ue170006ES1_, symObjAddr: 0xCC50, symBinAddr: 0x10000E39C, symSize: 0x20 }
  - { offsetInCU: 0x1B29C, offset: 0x1B29C, size: 0x8, addend: 0x0, symName: __ZNKSt3__17greaterIxEclB8ue170006ERKxS3_, symObjAddr: 0xCE74, symBinAddr: 0x10000E5C0, symSize: 0x34 }
  - { offsetInCU: 0x1B2E0, offset: 0x1B2E0, size: 0x8, addend: 0x0, symName: __ZNSt3__16vectorIxNS_9allocatorIxEEE8pop_backEv, symObjAddr: 0xCF00, symBinAddr: 0x10000E64C, symSize: 0x2C }
  - { offsetInCU: 0x1B308, offset: 0x1B308, size: 0x8, addend: 0x0, symName: __ZNSt3__111__wrap_iterIPxEppB8ue170006Ev, symObjAddr: 0xD204, symBinAddr: 0x10000E950, symSize: 0x20 }
  - { offsetInCU: 0x1B32E, offset: 0x1B32E, size: 0x8, addend: 0x0, symName: __ZNSt3__16vectorIxNS_9allocatorIxEEE17__destruct_at_endB8ue170006EPx, symObjAddr: 0xD224, symBinAddr: 0x10000E970, symSize: 0x4C }
  - { offsetInCU: 0x1B372, offset: 0x1B372, size: 0x8, addend: 0x0, symName: __ZNKSt3__16vectorIxNS_9allocatorIxEEE17__annotate_shrinkB8ue170006Em, symObjAddr: 0xD270, symBinAddr: 0x10000E9BC, symSize: 0xB4 }
...
